
JTAG2UPDI.elf:     file format elf32-avr

Sections:
Idx Name          Size      VMA       LMA       File off  Algn
  0 .data         00000000  00800100  00800100  00000a52  2**0
                  CONTENTS, ALLOC, LOAD, DATA
  1 .text         000009de  00000000  00000000  00000074  2**1
                  CONTENTS, ALLOC, LOAD, READONLY, CODE
  2 .bss          000001cc  00800100  00800100  00000a52  2**0
                  ALLOC
  3 .comment      00000041  00000000  00000000  00000a52  2**0
                  CONTENTS, READONLY
  4 .note.gnu.avr.deviceinfo 00000040  00000000  00000000  00000a94  2**2
                  CONTENTS, READONLY
  5 .debug_aranges 00000040  00000000  00000000  00000ad8  2**3
                  CONTENTS, READONLY, DEBUGGING
  6 .debug_info   00000640  00000000  00000000  00000b18  2**0
                  CONTENTS, READONLY, DEBUGGING
  7 .debug_abbrev 000005ca  00000000  00000000  00001158  2**0
                  CONTENTS, READONLY, DEBUGGING
  8 .debug_line   0000012d  00000000  00000000  00001722  2**0
                  CONTENTS, READONLY, DEBUGGING
  9 .debug_str    00000291  00000000  00000000  0000184f  2**0
                  CONTENTS, READONLY, DEBUGGING

Disassembly of section .text:

00000000 <__vectors>:
   0:	52 c1       	rjmp	.+676    	; 0x2a6 <__ctors_end>
   2:	00 00       	nop
   4:	60 c1       	rjmp	.+704    	; 0x2c6 <__bad_interrupt>
   6:	00 00       	nop
   8:	5e c1       	rjmp	.+700    	; 0x2c6 <__bad_interrupt>
   a:	00 00       	nop
   c:	5c c1       	rjmp	.+696    	; 0x2c6 <__bad_interrupt>
   e:	00 00       	nop
  10:	5a c1       	rjmp	.+692    	; 0x2c6 <__bad_interrupt>
  12:	00 00       	nop
  14:	58 c1       	rjmp	.+688    	; 0x2c6 <__bad_interrupt>
  16:	00 00       	nop
  18:	56 c1       	rjmp	.+684    	; 0x2c6 <__bad_interrupt>
  1a:	00 00       	nop
  1c:	54 c1       	rjmp	.+680    	; 0x2c6 <__bad_interrupt>
  1e:	00 00       	nop
  20:	52 c1       	rjmp	.+676    	; 0x2c6 <__bad_interrupt>
  22:	00 00       	nop
  24:	50 c1       	rjmp	.+672    	; 0x2c6 <__bad_interrupt>
  26:	00 00       	nop
  28:	4e c1       	rjmp	.+668    	; 0x2c6 <__bad_interrupt>
  2a:	00 00       	nop
  2c:	4c c1       	rjmp	.+664    	; 0x2c6 <__bad_interrupt>
  2e:	00 00       	nop
  30:	4a c1       	rjmp	.+660    	; 0x2c6 <__bad_interrupt>
  32:	00 00       	nop
  34:	48 c1       	rjmp	.+656    	; 0x2c6 <__bad_interrupt>
  36:	00 00       	nop
  38:	46 c1       	rjmp	.+652    	; 0x2c6 <__bad_interrupt>
  3a:	00 00       	nop
  3c:	44 c1       	rjmp	.+648    	; 0x2c6 <__bad_interrupt>
  3e:	00 00       	nop
  40:	42 c1       	rjmp	.+644    	; 0x2c6 <__bad_interrupt>
  42:	00 00       	nop
  44:	40 c1       	rjmp	.+640    	; 0x2c6 <__bad_interrupt>
  46:	00 00       	nop
  48:	3e c1       	rjmp	.+636    	; 0x2c6 <__bad_interrupt>
  4a:	00 00       	nop
  4c:	3c c1       	rjmp	.+632    	; 0x2c6 <__bad_interrupt>
  4e:	00 00       	nop
  50:	3a c1       	rjmp	.+628    	; 0x2c6 <__bad_interrupt>
  52:	00 00       	nop
  54:	38 c1       	rjmp	.+624    	; 0x2c6 <__bad_interrupt>
  56:	00 00       	nop
  58:	36 c1       	rjmp	.+620    	; 0x2c6 <__bad_interrupt>
  5a:	00 00       	nop
  5c:	34 c1       	rjmp	.+616    	; 0x2c6 <__bad_interrupt>
  5e:	00 00       	nop
  60:	32 c1       	rjmp	.+612    	; 0x2c6 <__bad_interrupt>
  62:	00 00       	nop
  64:	30 c1       	rjmp	.+608    	; 0x2c6 <__bad_interrupt>
	...

00000068 <__trampolines_end>:
  68:	86 01       	movw	r16, r12
  6a:	01 00       	.word	0x0001	; ????
  6c:	06 01       	movw	r0, r12
  6e:	01 00       	.word	0x0001	; ????
  70:	06 01       	movw	r0, r12
  72:	00 00       	nop
  74:	00 00       	nop
  76:	00 00       	nop
  78:	4a 54       	subi	r20, 0x4A	; 74
  7a:	41 47       	sbci	r20, 0x71	; 113
  7c:	49 43       	sbci	r20, 0x39	; 57
  7e:	45 20       	and	r4, r5
  80:	6d 6b       	ori	r22, 0xBD	; 189
  82:	49 49       	sbci	r20, 0x99	; 153
	...

00000085 <_ZN4UPDI10Chip_EraseE>:
  85:	65 73 61 72 45 4d 56 4e                             esarEMVN

0000008d <_ZL8baud_tbl>:
  8d:	40 03 a0 01 cf 00 67 00 33 00 22 00 10 00 8a 00     @.....g.3.".....

0000009d <_ZN4UPDI8NVM_ProgE>:
  9d:	20 67 6f 72 50 4d 56 4e                              gorPMVN

000000a5 <_ZL9crc_table>:
  a5:	00 00 89 11 12 23 9b 32 24 46 ad 57 36 65 bf 74     .....#.2$F.W6e.t
  b5:	48 8c c1 9d 5a af d3 be 6c ca e5 db 7e e9 f7 f8     H...Z...l...~...
  c5:	81 10 08 01 93 33 1a 22 a5 56 2c 47 b7 75 3e 64     .....3.".V,G.u>d
  d5:	c9 9c 40 8d db bf 52 ae ed da 64 cb ff f9 76 e8     ..@...R...d...v.
  e5:	02 21 8b 30 10 02 99 13 26 67 af 76 34 44 bd 55     .!.0....&g.v4D.U
  f5:	4a ad c3 bc 58 8e d1 9f 6e eb e7 fa 7c c8 f5 d9     J...X...n...|...
 105:	83 31 0a 20 91 12 18 03 a7 77 2e 66 b5 54 3c 45     .1. .....w.f.T<E
 115:	cb bd 42 ac d9 9e 50 8f ef fb 66 ea fd d8 74 c9     ..B...P...f...t.
 125:	04 42 8d 53 16 61 9f 70 20 04 a9 15 32 27 bb 36     .B.S.a.p ...2'.6
 135:	4c ce c5 df 5e ed d7 fc 68 88 e1 99 7a ab f3 ba     L...^...h...z...
 145:	85 52 0c 43 97 71 1e 60 a1 14 28 05 b3 37 3a 26     .R.C.q.`..(..7:&
 155:	cd de 44 cf df fd 56 ec e9 98 60 89 fb bb 72 aa     ..D...V...`...r.
 165:	06 63 8f 72 14 40 9d 51 22 25 ab 34 30 06 b9 17     .c.r.@.Q"%.40...
 175:	4e ef c7 fe 5c cc d5 dd 6a a9 e3 b8 78 8a f1 9b     N...\...j...x...
 185:	87 73 0e 62 95 50 1c 41 a3 35 2a 24 b1 16 38 07     .s.b.P.A.5*$..8.
 195:	cf ff 46 ee dd dc 54 cd eb b9 62 a8 f9 9a 70 8b     ..F...T...b...p.
 1a5:	08 84 81 95 1a a7 93 b6 2c c2 a5 d3 3e e1 b7 f0     ........,...>...
 1b5:	40 08 c9 19 52 2b db 3a 64 4e ed 5f 76 6d ff 7c     @...R+.:dN._vm.|
 1c5:	89 94 00 85 9b b7 12 a6 ad d2 24 c3 bf f1 36 e0     ..........$...6.
 1d5:	c1 18 48 09 d3 3b 5a 2a e5 5e 6c 4f f7 7d 7e 6c     ..H..;Z*.^lO.}~l
 1e5:	0a a5 83 b4 18 86 91 97 2e e3 a7 f2 3c c0 b5 d1     ............<...
 1f5:	42 29 cb 38 50 0a d9 1b 66 6f ef 7e 74 4c fd 5d     B).8P...fo.~tL.]
 205:	8b b5 02 a4 99 96 10 87 af f3 26 e2 bd d0 34 c1     ..........&...4.
 215:	c3 39 4a 28 d1 1a 58 0b e7 7f 6e 6e f5 5c 7c 4d     .9J(..X...nn.\|M
 225:	0c c6 85 d7 1e e5 97 f4 28 80 a1 91 3a a3 b3 b2     ........(...:...
 235:	44 4a cd 5b 56 69 df 78 60 0c e9 1d 72 2f fb 3e     DJ.[Vi.x`...r/.>
 245:	8d d6 04 c7 9f f5 16 e4 a9 90 20 81 bb b3 32 a2     .......... ...2.
 255:	c5 5a 4c 4b d7 79 5e 68 e1 1c 68 0d f3 3f 7a 2e     .ZLK.y^h..h..?z.
 265:	0e e7 87 f6 1c c4 95 d5 2a a1 a3 b0 38 82 b1 93     ........*...8...
 275:	46 6b cf 7a 54 48 dd 59 62 2d eb 3c 70 0e f9 1f     Fk.zTH.Yb-.<p...
 285:	8f f7 06 e6 9d d4 14 c5 ab b1 22 a0 b9 92 30 83     .........."...0.
 295:	c7 7b 4e 6a d5 58 5c 49 e3 3d 6a 2c f1 1e 78 0f     .{Nj.X\I.=j,..x.
	...

000002a6 <__ctors_end>:
 2a6:	11 24       	eor	r1, r1
 2a8:	1f be       	out	0x3f, r1	; 63
 2aa:	cf ef       	ldi	r28, 0xFF	; 255
 2ac:	d8 e0       	ldi	r29, 0x08	; 8
 2ae:	de bf       	out	0x3e, r29	; 62
 2b0:	cd bf       	out	0x3d, r28	; 61

000002b2 <__do_clear_bss>:
 2b2:	22 e0       	ldi	r18, 0x02	; 2
 2b4:	a0 e0       	ldi	r26, 0x00	; 0
 2b6:	b1 e0       	ldi	r27, 0x01	; 1
 2b8:	01 c0       	rjmp	.+2      	; 0x2bc <.do_clear_bss_start>

000002ba <.do_clear_bss_loop>:
 2ba:	1d 92       	st	X+, r1

000002bc <.do_clear_bss_start>:
 2bc:	ac 3c       	cpi	r26, 0xCC	; 204
 2be:	b2 07       	cpc	r27, r18
 2c0:	e1 f7       	brne	.-8      	; 0x2ba <.do_clear_bss_loop>
 2c2:	4e d1       	rcall	.+668    	; 0x560 <main>
 2c4:	8a c3       	rjmp	.+1812   	; 0x9da <_exit>

000002c6 <__bad_interrupt>:
 2c6:	9c ce       	rjmp	.-712    	; 0x0 <__vectors>

000002c8 <_ZN3CRC4nextEhj>:
 2c8:	86 27       	eor	r24, r22
 2ca:	e8 2f       	mov	r30, r24
 2cc:	f0 e0       	ldi	r31, 0x00	; 0
 2ce:	ee 0f       	add	r30, r30
 2d0:	ff 1f       	adc	r31, r31
 2d2:	eb 55       	subi	r30, 0x5B	; 91
 2d4:	ff 4f       	sbci	r31, 0xFF	; 255
 2d6:	25 91       	lpm	r18, Z+
 2d8:	34 91       	lpm	r19, Z
 2da:	87 2f       	mov	r24, r23
 2dc:	82 27       	eor	r24, r18
 2de:	93 2f       	mov	r25, r19
 2e0:	08 95       	ret

000002e2 <_ZZN7UPDI_io3putENS_4ctrlEENKUlvE_clEv.isra.0>:
 2e2:	84 e0       	ldi	r24, 0x04	; 4
 2e4:	85 bd       	out	0x25, r24	; 37
 2e6:	80 e8       	ldi	r24, 0x80	; 128
 2e8:	87 bd       	out	0x27, r24	; 39
 2ea:	8b e0       	ldi	r24, 0x0B	; 11
 2ec:	92 e0       	ldi	r25, 0x02	; 2
 2ee:	a9 9b       	sbis	0x15, 1	; 21
 2f0:	fe cf       	rjmp	.-4      	; 0x2ee <_ZZN7UPDI_io3putENS_4ctrlEENKUlvE_clEv.isra.0+0xc>
 2f2:	95 bb       	out	0x15, r25	; 21
 2f4:	81 50       	subi	r24, 0x01	; 1
 2f6:	d9 f7       	brne	.-10     	; 0x2ee <_ZZN7UPDI_io3putENS_4ctrlEENKUlvE_clEv.isra.0+0xc>
 2f8:	82 ec       	ldi	r24, 0xC2	; 194
 2fa:	84 bd       	out	0x24, r24	; 36
 2fc:	a9 9b       	sbis	0x15, 1	; 21
 2fe:	fe cf       	rjmp	.-4      	; 0x2fc <_ZZN7UPDI_io3putENS_4ctrlEENKUlvE_clEv.isra.0+0x1a>
 300:	82 e0       	ldi	r24, 0x02	; 2
 302:	85 bb       	out	0x15, r24	; 21
 304:	56 98       	cbi	0x0a, 6	; 10
 306:	08 95       	ret

00000308 <_ZN7UPDI_io3getEv>:
 308:	15 bc       	out	0x25, r1	; 37
 30a:	82 e2       	ldi	r24, 0x22	; 34
 30c:	87 bd       	out	0x27, r24	; 39
 30e:	8c e0       	ldi	r24, 0x0C	; 12
 310:	86 bd       	out	0x26, r24	; 38
 312:	82 e0       	ldi	r24, 0x02	; 2
 314:	85 bb       	out	0x15, r24	; 21
 316:	5e 98       	cbi	0x0b, 6	; 11
 318:	4e 99       	sbic	0x09, 6	; 9
 31a:	fe cf       	rjmp	.-4      	; 0x318 <_ZN7UPDI_io3getEv+0x10>
 31c:	81 e0       	ldi	r24, 0x01	; 1
 31e:	85 bd       	out	0x25, r24	; 37
 320:	a9 9b       	sbis	0x15, 1	; 21
 322:	fe cf       	rjmp	.-4      	; 0x320 <_ZN7UPDI_io3getEv+0x18>
 324:	82 e0       	ldi	r24, 0x02	; 2
 326:	85 bb       	out	0x15, r24	; 21
 328:	86 e4       	ldi	r24, 0x46	; 70
 32a:	87 bd       	out	0x27, r24	; 39
 32c:	98 e0       	ldi	r25, 0x08	; 8
 32e:	80 e0       	ldi	r24, 0x00	; 0
 330:	22 e0       	ldi	r18, 0x02	; 2
 332:	a9 9b       	sbis	0x15, 1	; 21
 334:	fe cf       	rjmp	.-4      	; 0x332 <_ZN7UPDI_io3getEv+0x2a>
 336:	25 bb       	out	0x15, r18	; 21
 338:	86 95       	lsr	r24
 33a:	4e 99       	sbic	0x09, 6	; 9
 33c:	80 68       	ori	r24, 0x80	; 128
 33e:	91 50       	subi	r25, 0x01	; 1
 340:	c1 f7       	brne	.-16     	; 0x332 <_ZN7UPDI_io3getEv+0x2a>
 342:	a9 9b       	sbis	0x15, 1	; 21
 344:	fe cf       	rjmp	.-4      	; 0x342 <_ZN7UPDI_io3getEv+0x3a>
 346:	92 e0       	ldi	r25, 0x02	; 2
 348:	95 bb       	out	0x15, r25	; 21
 34a:	90 eb       	ldi	r25, 0xB0	; 176
 34c:	97 bd       	out	0x27, r25	; 39
 34e:	4e 9b       	sbis	0x09, 6	; 9
 350:	fe cf       	rjmp	.-4      	; 0x34e <_ZN7UPDI_io3getEv+0x46>
 352:	5e 9a       	sbi	0x0b, 6	; 11
 354:	08 95       	ret

00000356 <_ZN7UPDI_io3putEc>:
 356:	a9 9b       	sbis	0x15, 1	; 21
 358:	fe cf       	rjmp	.-4      	; 0x356 <_ZN7UPDI_io3putEc>
 35a:	92 e0       	ldi	r25, 0x02	; 2
 35c:	95 bb       	out	0x15, r25	; 21
 35e:	15 bc       	out	0x25, r1	; 37
 360:	26 e4       	ldi	r18, 0x46	; 70
 362:	27 bd       	out	0x27, r18	; 39
 364:	25 e4       	ldi	r18, 0x45	; 69
 366:	26 bd       	out	0x26, r18	; 38
 368:	22 e8       	ldi	r18, 0x82	; 130
 36a:	24 bd       	out	0x24, r18	; 36
 36c:	21 e0       	ldi	r18, 0x01	; 1
 36e:	25 bd       	out	0x25, r18	; 37
 370:	56 9a       	sbi	0x0a, 6	; 10
 372:	95 bb       	out	0x15, r25	; 21
 374:	91 e0       	ldi	r25, 0x01	; 1
 376:	20 e0       	ldi	r18, 0x00	; 0
 378:	42 e8       	ldi	r20, 0x82	; 130
 37a:	52 ec       	ldi	r21, 0xC2	; 194
 37c:	32 e0       	ldi	r19, 0x02	; 2
 37e:	68 2f       	mov	r22, r24
 380:	69 23       	and	r22, r25
 382:	d1 f0       	breq	.+52     	; 0x3b8 <_ZN7UPDI_io3putEc+0x62>
 384:	54 bd       	out	0x24, r21	; 36
 386:	20 95       	com	r18
 388:	a9 9b       	sbis	0x15, 1	; 21
 38a:	fe cf       	rjmp	.-4      	; 0x388 <_ZN7UPDI_io3putEc+0x32>
 38c:	35 bb       	out	0x15, r19	; 21
 38e:	99 0f       	add	r25, r25
 390:	b1 f7       	brne	.-20     	; 0x37e <_ZN7UPDI_io3putEc+0x28>
 392:	92 ec       	ldi	r25, 0xC2	; 194
 394:	21 11       	cpse	r18, r1
 396:	01 c0       	rjmp	.+2      	; 0x39a <_ZN7UPDI_io3putEc+0x44>
 398:	92 e8       	ldi	r25, 0x82	; 130
 39a:	94 bd       	out	0x24, r25	; 36
 39c:	a9 9b       	sbis	0x15, 1	; 21
 39e:	fe cf       	rjmp	.-4      	; 0x39c <_ZN7UPDI_io3putEc+0x46>
 3a0:	92 e0       	ldi	r25, 0x02	; 2
 3a2:	95 bb       	out	0x15, r25	; 21
 3a4:	92 ec       	ldi	r25, 0xC2	; 194
 3a6:	94 bd       	out	0x24, r25	; 36
 3a8:	a9 9b       	sbis	0x15, 1	; 21
 3aa:	fe cf       	rjmp	.-4      	; 0x3a8 <_ZN7UPDI_io3putEc+0x52>
 3ac:	92 e0       	ldi	r25, 0x02	; 2
 3ae:	95 bb       	out	0x15, r25	; 21
 3b0:	9d e8       	ldi	r25, 0x8D	; 141
 3b2:	97 bd       	out	0x27, r25	; 39
 3b4:	56 98       	cbi	0x0a, 6	; 10
 3b6:	08 95       	ret
 3b8:	44 bd       	out	0x24, r20	; 36
 3ba:	e6 cf       	rjmp	.-52     	; 0x388 <_ZN7UPDI_io3putEc+0x32>

000003bc <_ZN4UPDI5lds_bEj.constprop.2>:
 3bc:	85 e5       	ldi	r24, 0x55	; 85
 3be:	cb df       	rcall	.-106    	; 0x356 <_ZN7UPDI_io3putEc>
 3c0:	84 e0       	ldi	r24, 0x04	; 4
 3c2:	c9 df       	rcall	.-110    	; 0x356 <_ZN7UPDI_io3putEc>
 3c4:	82 e0       	ldi	r24, 0x02	; 2
 3c6:	c7 df       	rcall	.-114    	; 0x356 <_ZN7UPDI_io3putEc>
 3c8:	80 e1       	ldi	r24, 0x10	; 16
 3ca:	c5 df       	rcall	.-118    	; 0x356 <_ZN7UPDI_io3putEc>
 3cc:	9d cf       	rjmp	.-198    	; 0x308 <_ZN7UPDI_io3getEv>

000003ce <_ZN4UPDI4lcdsENS_3regE.constprop.1>:
 3ce:	85 e5       	ldi	r24, 0x55	; 85
 3d0:	c2 df       	rcall	.-124    	; 0x356 <_ZN7UPDI_io3putEc>
 3d2:	8b e8       	ldi	r24, 0x8B	; 139
 3d4:	c0 df       	rcall	.-128    	; 0x356 <_ZN7UPDI_io3putEc>
 3d6:	98 cf       	rjmp	.-208    	; 0x308 <_ZN7UPDI_io3getEv>

000003d8 <_ZN4UPDI9CPU_resetEv>:
 3d8:	85 e5       	ldi	r24, 0x55	; 85
 3da:	bd df       	rcall	.-134    	; 0x356 <_ZN7UPDI_io3putEc>
 3dc:	88 ec       	ldi	r24, 0xC8	; 200
 3de:	bb df       	rcall	.-138    	; 0x356 <_ZN7UPDI_io3putEc>
 3e0:	89 e5       	ldi	r24, 0x59	; 89
 3e2:	b9 df       	rcall	.-142    	; 0x356 <_ZN7UPDI_io3putEc>
 3e4:	85 e5       	ldi	r24, 0x55	; 85
 3e6:	b7 df       	rcall	.-146    	; 0x356 <_ZN7UPDI_io3putEc>
 3e8:	88 ec       	ldi	r24, 0xC8	; 200
 3ea:	b5 df       	rcall	.-150    	; 0x356 <_ZN7UPDI_io3putEc>
 3ec:	80 e0       	ldi	r24, 0x00	; 0
 3ee:	b3 cf       	rjmp	.-154    	; 0x356 <_ZN7UPDI_io3putEc>

000003f0 <_ZN4UPDI7stinc_bEh>:
 3f0:	8e bb       	out	0x1e, r24	; 30
 3f2:	85 e5       	ldi	r24, 0x55	; 85
 3f4:	b0 df       	rcall	.-160    	; 0x356 <_ZN7UPDI_io3putEc>
 3f6:	84 e6       	ldi	r24, 0x64	; 100
 3f8:	ae df       	rcall	.-164    	; 0x356 <_ZN7UPDI_io3putEc>
 3fa:	8e b3       	in	r24, 0x1e	; 30
 3fc:	ac df       	rcall	.-168    	; 0x356 <_ZN7UPDI_io3putEc>
 3fe:	84 cf       	rjmp	.-248    	; 0x308 <_ZN7UPDI_io3getEv>

00000400 <_ZN4UPDI7stptr_wEj>:
 400:	8e bb       	out	0x1e, r24	; 30
 402:	9a bd       	out	0x2a, r25	; 42
 404:	85 e5       	ldi	r24, 0x55	; 85
 406:	a7 df       	rcall	.-178    	; 0x356 <_ZN7UPDI_io3putEc>
 408:	89 e6       	ldi	r24, 0x69	; 105
 40a:	a5 df       	rcall	.-182    	; 0x356 <_ZN7UPDI_io3putEc>
 40c:	8e b3       	in	r24, 0x1e	; 30
 40e:	a3 df       	rcall	.-186    	; 0x356 <_ZN7UPDI_io3putEc>
 410:	8a b5       	in	r24, 0x2a	; 42
 412:	a1 df       	rcall	.-190    	; 0x356 <_ZN7UPDI_io3putEc>
 414:	79 cf       	rjmp	.-270    	; 0x308 <_ZN7UPDI_io3getEv>

00000416 <_ZN4UPDI7ldptr_wEv>:
 416:	85 e5       	ldi	r24, 0x55	; 85
 418:	9e df       	rcall	.-196    	; 0x356 <_ZN7UPDI_io3putEc>
 41a:	89 e2       	ldi	r24, 0x29	; 41
 41c:	9c df       	rcall	.-200    	; 0x356 <_ZN7UPDI_io3putEc>
 41e:	74 df       	rcall	.-280    	; 0x308 <_ZN7UPDI_io3getEv>
 420:	8e bb       	out	0x1e, r24	; 30
 422:	72 df       	rcall	.-284    	; 0x308 <_ZN7UPDI_io3getEv>
 424:	9e b3       	in	r25, 0x1e	; 30
 426:	89 27       	eor	r24, r25
 428:	98 27       	eor	r25, r24
 42a:	89 27       	eor	r24, r25
 42c:	08 95       	ret

0000042e <_ZN4UPDI5sts_bEjh>:
 42e:	6e bb       	out	0x1e, r22	; 30
 430:	8a bd       	out	0x2a, r24	; 42
 432:	9b bd       	out	0x2b, r25	; 43
 434:	85 e5       	ldi	r24, 0x55	; 85
 436:	8f df       	rcall	.-226    	; 0x356 <_ZN7UPDI_io3putEc>
 438:	84 e4       	ldi	r24, 0x44	; 68
 43a:	8d df       	rcall	.-230    	; 0x356 <_ZN7UPDI_io3putEc>
 43c:	8a b5       	in	r24, 0x2a	; 42
 43e:	8b df       	rcall	.-234    	; 0x356 <_ZN7UPDI_io3putEc>
 440:	8b b5       	in	r24, 0x2b	; 43
 442:	89 df       	rcall	.-238    	; 0x356 <_ZN7UPDI_io3putEc>
 444:	61 df       	rcall	.-318    	; 0x308 <_ZN7UPDI_io3getEv>
 446:	8e b3       	in	r24, 0x1e	; 30
 448:	86 df       	rcall	.-244    	; 0x356 <_ZN7UPDI_io3putEc>
 44a:	5e cf       	rjmp	.-324    	; 0x308 <_ZN7UPDI_io3getEv>

0000044c <_ZN4UPDI3repEh>:
 44c:	8e bb       	out	0x1e, r24	; 30
 44e:	85 e5       	ldi	r24, 0x55	; 85
 450:	82 df       	rcall	.-252    	; 0x356 <_ZN7UPDI_io3putEc>
 452:	80 ea       	ldi	r24, 0xA0	; 160
 454:	80 df       	rcall	.-256    	; 0x356 <_ZN7UPDI_io3putEc>
 456:	8e b3       	in	r24, 0x1e	; 30
 458:	7e cf       	rjmp	.-260    	; 0x356 <_ZN7UPDI_io3putEc>

0000045a <_ZN7JICE_io3getEv>:
 45a:	e0 ec       	ldi	r30, 0xC0	; 192
 45c:	f0 e0       	ldi	r31, 0x00	; 0
 45e:	80 81       	ld	r24, Z
 460:	87 ff       	sbrs	r24, 7
 462:	fd cf       	rjmp	.-6      	; 0x45e <_ZN7JICE_io3getEv+0x4>
 464:	80 91 c6 00 	lds	r24, 0x00C6	; 0x8000c6 <__TEXT_REGION_LENGTH__+0x7e00c6>
 468:	08 95       	ret

0000046a <_ZN7JICE_io3putEc>:
 46a:	e0 ec       	ldi	r30, 0xC0	; 192
 46c:	f0 e0       	ldi	r31, 0x00	; 0
 46e:	90 81       	ld	r25, Z
 470:	95 ff       	sbrs	r25, 5
 472:	fd cf       	rjmp	.-6      	; 0x46e <_ZN7JICE_io3putEc+0x4>
 474:	80 93 c6 00 	sts	0x00C6, r24	; 0x8000c6 <__TEXT_REGION_LENGTH__+0x7e00c6>
 478:	08 95       	ret

0000047a <_ZZ18NVM_buffered_writejjhhENKUlhRhE_clEhS_.isra.4>:
 47a:	ef 92       	push	r14
 47c:	ff 92       	push	r15
 47e:	0f 93       	push	r16
 480:	1f 93       	push	r17
 482:	cf 93       	push	r28
 484:	df 93       	push	r29
 486:	08 2f       	mov	r16, r24
 488:	eb 01       	movw	r28, r22
 48a:	c5 df       	rcall	.-118    	; 0x416 <_ZN4UPDI7ldptr_wEv>
 48c:	7c 01       	movw	r14, r24
 48e:	96 df       	rcall	.-212    	; 0x3bc <_ZN4UPDI5lds_bEj.constprop.2>
 490:	83 70       	andi	r24, 0x03	; 3
 492:	e9 f7       	brne	.-6      	; 0x48e <_ZZ18NVM_buffered_writejjhhENKUlhRhE_clEhS_.isra.4+0x14>
 494:	c7 01       	movw	r24, r14
 496:	b4 df       	rcall	.-152    	; 0x400 <_ZN4UPDI7stptr_wEj>
 498:	8f ef       	ldi	r24, 0xFF	; 255
 49a:	80 0f       	add	r24, r16
 49c:	d7 df       	rcall	.-82     	; 0x44c <_ZN4UPDI3repEh>
 49e:	e8 81       	ld	r30, Y
 4a0:	81 e0       	ldi	r24, 0x01	; 1
 4a2:	8e 0f       	add	r24, r30
 4a4:	88 83       	st	Y, r24
 4a6:	f0 e0       	ldi	r31, 0x00	; 0
 4a8:	ec 5f       	subi	r30, 0xFC	; 252
 4aa:	fe 4f       	sbci	r31, 0xFE	; 254
 4ac:	86 81       	ldd	r24, Z+6	; 0x06
 4ae:	a0 df       	rcall	.-192    	; 0x3f0 <_ZN4UPDI7stinc_bEh>
 4b0:	f1 2c       	mov	r15, r1
 4b2:	01 50       	subi	r16, 0x01	; 1
 4b4:	11 0b       	sbc	r17, r17
 4b6:	f0 16       	cp	r15, r16
 4b8:	11 06       	cpc	r1, r17
 4ba:	64 f4       	brge	.+24     	; 0x4d4 <_ZZ18NVM_buffered_writejjhhENKUlhRhE_clEhS_.isra.4+0x5a>
 4bc:	e8 81       	ld	r30, Y
 4be:	81 e0       	ldi	r24, 0x01	; 1
 4c0:	8e 0f       	add	r24, r30
 4c2:	88 83       	st	Y, r24
 4c4:	f0 e0       	ldi	r31, 0x00	; 0
 4c6:	ec 5f       	subi	r30, 0xFC	; 252
 4c8:	fe 4f       	sbci	r31, 0xFE	; 254
 4ca:	86 81       	ldd	r24, Z+6	; 0x06
 4cc:	44 df       	rcall	.-376    	; 0x356 <_ZN7UPDI_io3putEc>
 4ce:	1c df       	rcall	.-456    	; 0x308 <_ZN7UPDI_io3getEv>
 4d0:	f3 94       	inc	r15
 4d2:	f1 cf       	rjmp	.-30     	; 0x4b6 <_ZZ18NVM_buffered_writejjhhENKUlhRhE_clEhS_.isra.4+0x3c>
 4d4:	df 91       	pop	r29
 4d6:	cf 91       	pop	r28
 4d8:	1f 91       	pop	r17
 4da:	0f 91       	pop	r16
 4dc:	ff 90       	pop	r15
 4de:	ef 90       	pop	r14
 4e0:	08 95       	ret

000004e2 <_ZN4UPDI9write_keyIK5flashIhEEEvRA8_T_>:
 4e2:	0f 93       	push	r16
 4e4:	1f 93       	push	r17
 4e6:	cf 93       	push	r28
 4e8:	df 93       	push	r29
 4ea:	8c 01       	movw	r16, r24
 4ec:	85 e5       	ldi	r24, 0x55	; 85
 4ee:	33 df       	rcall	.-410    	; 0x356 <_ZN7UPDI_io3putEc>
 4f0:	80 ee       	ldi	r24, 0xE0	; 224
 4f2:	31 df       	rcall	.-414    	; 0x356 <_ZN7UPDI_io3putEc>
 4f4:	d0 e0       	ldi	r29, 0x00	; 0
 4f6:	c0 e0       	ldi	r28, 0x00	; 0
 4f8:	f8 01       	movw	r30, r16
 4fa:	ec 0f       	add	r30, r28
 4fc:	fd 1f       	adc	r31, r29
 4fe:	84 91       	lpm	r24, Z
 500:	2a df       	rcall	.-428    	; 0x356 <_ZN7UPDI_io3putEc>
 502:	21 96       	adiw	r28, 0x01	; 1
 504:	c8 30       	cpi	r28, 0x08	; 8
 506:	d1 05       	cpc	r29, r1
 508:	b9 f7       	brne	.-18     	; 0x4f8 <_ZN4UPDI9write_keyIK5flashIhEEEvRA8_T_+0x16>
 50a:	df 91       	pop	r29
 50c:	cf 91       	pop	r28
 50e:	1f 91       	pop	r17
 510:	0f 91       	pop	r16
 512:	08 95       	ret

00000514 <_ZN5JTAG210set_statusEh>:
 514:	e4 e0       	ldi	r30, 0x04	; 4
 516:	f1 e0       	ldi	r31, 0x01	; 1
 518:	21 e0       	ldi	r18, 0x01	; 1
 51a:	30 e0       	ldi	r19, 0x00	; 0
 51c:	33 83       	std	Z+3, r19	; 0x03
 51e:	22 83       	std	Z+2, r18	; 0x02
 520:	86 83       	std	Z+6, r24	; 0x06
 522:	08 95       	ret

00000524 <_ZN5JTAG214enter_progmodeEv>:
 524:	54 df       	rcall	.-344    	; 0x3ce <_ZN4UPDI4lcdsENS_3regE.constprop.1>
 526:	8f 7e       	andi	r24, 0xEF	; 239
 528:	88 30       	cpi	r24, 0x08	; 8
 52a:	49 f0       	breq	.+18     	; 0x53e <_ZN5JTAG214enter_progmodeEv+0x1a>
 52c:	82 38       	cpi	r24, 0x82	; 130
 52e:	71 f4       	brne	.+28     	; 0x54c <_ZN5JTAG214enter_progmodeEv+0x28>
 530:	8d e9       	ldi	r24, 0x9D	; 157
 532:	90 e0       	ldi	r25, 0x00	; 0
 534:	d6 df       	rcall	.-84     	; 0x4e2 <_ZN4UPDI9write_keyIK5flashIhEEEvRA8_T_>
 536:	50 df       	rcall	.-352    	; 0x3d8 <_ZN4UPDI9CPU_resetEv>
 538:	4a df       	rcall	.-364    	; 0x3ce <_ZN4UPDI4lcdsENS_3regE.constprop.1>
 53a:	88 30       	cpi	r24, 0x08	; 8
 53c:	e9 f7       	brne	.-6      	; 0x538 <_ZN5JTAG214enter_progmodeEv+0x14>
 53e:	64 e0       	ldi	r22, 0x04	; 4
 540:	80 e0       	ldi	r24, 0x00	; 0
 542:	90 e1       	ldi	r25, 0x10	; 16
 544:	74 df       	rcall	.-280    	; 0x42e <_ZN4UPDI5sts_bEjh>
 546:	2d 9a       	sbi	0x05, 5	; 5
 548:	80 e8       	ldi	r24, 0x80	; 128
 54a:	e4 cf       	rjmp	.-56     	; 0x514 <_ZN5JTAG210set_statusEh>
 54c:	e4 e0       	ldi	r30, 0x04	; 4
 54e:	f1 e0       	ldi	r31, 0x01	; 1
 550:	22 e0       	ldi	r18, 0x02	; 2
 552:	30 e0       	ldi	r19, 0x00	; 0
 554:	33 83       	std	Z+3, r19	; 0x03
 556:	22 83       	std	Z+2, r18	; 0x02
 558:	95 ea       	ldi	r25, 0xA5	; 165
 55a:	96 83       	std	Z+6, r25	; 0x06
 55c:	87 83       	std	Z+7, r24	; 0x07
 55e:	08 95       	ret

00000560 <main>:
 560:	0f 92       	push	r0
 562:	cd b7       	in	r28, 0x3d	; 61
 564:	de b7       	in	r29, 0x3e	; 62
 566:	8f e3       	ldi	r24, 0x3F	; 63
 568:	80 93 7e 00 	sts	0x007E, r24	; 0x80007e <__TEXT_REGION_LENGTH__+0x7e007e>
 56c:	8f ef       	ldi	r24, 0xFF	; 255
 56e:	8b b9       	out	0x0b, r24	; 11
 570:	8f ed       	ldi	r24, 0xDF	; 223
 572:	85 b9       	out	0x05, r24	; 5
 574:	80 e8       	ldi	r24, 0x80	; 128
 576:	80 bf       	out	0x30, r24	; 48
 578:	8d ec       	ldi	r24, 0xCD	; 205
 57a:	80 93 64 00 	sts	0x0064, r24	; 0x800064 <__TEXT_REGION_LENGTH__+0x7e0064>
 57e:	82 e0       	ldi	r24, 0x02	; 2
 580:	80 93 c0 00 	sts	0x00C0, r24	; 0x8000c0 <__TEXT_REGION_LENGTH__+0x7e00c0>
 584:	87 e6       	ldi	r24, 0x67	; 103
 586:	80 93 c4 00 	sts	0x00C4, r24	; 0x8000c4 <__TEXT_REGION_LENGTH__+0x7e00c4>
 58a:	88 e1       	ldi	r24, 0x18	; 24
 58c:	80 93 c1 00 	sts	0x00C1, r24	; 0x8000c1 <__TEXT_REGION_LENGTH__+0x7e00c1>
 590:	86 e0       	ldi	r24, 0x06	; 6
 592:	80 93 c2 00 	sts	0x00C2, r24	; 0x8000c2 <__TEXT_REGION_LENGTH__+0x7e00c2>
 596:	82 ec       	ldi	r24, 0xC2	; 194
 598:	84 bd       	out	0x24, r24	; 36
 59a:	85 e4       	ldi	r24, 0x45	; 69
 59c:	86 bd       	out	0x26, r24	; 38
 59e:	86 e4       	ldi	r24, 0x46	; 70
 5a0:	87 bd       	out	0x27, r24	; 39
 5a2:	81 e0       	ldi	r24, 0x01	; 1
 5a4:	85 bd       	out	0x25, r24	; 37
 5a6:	7a e0       	ldi	r23, 0x0A	; 10
 5a8:	67 2e       	mov	r6, r23
 5aa:	71 e0       	ldi	r23, 0x01	; 1
 5ac:	77 2e       	mov	r7, r23
 5ae:	04 e0       	ldi	r16, 0x04	; 4
 5b0:	11 e0       	ldi	r17, 0x01	; 1
 5b2:	e2 e0       	ldi	r30, 0x02	; 2
 5b4:	4e 2e       	mov	r4, r30
 5b6:	51 2c       	mov	r5, r1
 5b8:	50 df       	rcall	.-352    	; 0x45a <_ZN7JICE_io3getEv>
 5ba:	8b 31       	cpi	r24, 0x1B	; 27
 5bc:	e9 f7       	brne	.-6      	; 0x5b8 <main+0x58>
 5be:	6f ef       	ldi	r22, 0xFF	; 255
 5c0:	7f ef       	ldi	r23, 0xFF	; 255
 5c2:	82 de       	rcall	.-764    	; 0x2c8 <_ZN3CRC4nextEhj>
 5c4:	7c 01       	movw	r14, r24
 5c6:	64 e0       	ldi	r22, 0x04	; 4
 5c8:	c6 2e       	mov	r12, r22
 5ca:	61 e0       	ldi	r22, 0x01	; 1
 5cc:	d6 2e       	mov	r13, r22
 5ce:	56 01       	movw	r10, r12
 5d0:	44 df       	rcall	.-376    	; 0x45a <_ZN7JICE_io3getEv>
 5d2:	f5 01       	movw	r30, r10
 5d4:	81 93       	st	Z+, r24
 5d6:	5f 01       	movw	r10, r30
 5d8:	b7 01       	movw	r22, r14
 5da:	76 de       	rcall	.-788    	; 0x2c8 <_ZN3CRC4nextEhj>
 5dc:	7c 01       	movw	r14, r24
 5de:	a6 14       	cp	r10, r6
 5e0:	b7 04       	cpc	r11, r7
 5e2:	b1 f7       	brne	.-20     	; 0x5d0 <main+0x70>
 5e4:	f8 01       	movw	r30, r16
 5e6:	a2 80       	ldd	r10, Z+2	; 0x02
 5e8:	b3 80       	ldd	r11, Z+3	; 0x03
 5ea:	f3 ec       	ldi	r31, 0xC3	; 195
 5ec:	af 16       	cp	r10, r31
 5ee:	f1 e0       	ldi	r31, 0x01	; 1
 5f0:	bf 06       	cpc	r11, r31
 5f2:	10 f7       	brcc	.-60     	; 0x5b8 <main+0x58>
 5f4:	32 df       	rcall	.-412    	; 0x45a <_ZN7JICE_io3getEv>
 5f6:	8e 30       	cpi	r24, 0x0E	; 14
 5f8:	f9 f6       	brne	.-66     	; 0x5b8 <main+0x58>
 5fa:	b7 01       	movw	r22, r14
 5fc:	65 de       	rcall	.-822    	; 0x2c8 <_ZN3CRC4nextEhj>
 5fe:	4c 01       	movw	r8, r24
 600:	ac 0c       	add	r10, r12
 602:	bd 1c       	adc	r11, r13
 604:	76 01       	movw	r14, r12
 606:	ea 14       	cp	r14, r10
 608:	fb 04       	cpc	r15, r11
 60a:	51 f0       	breq	.+20     	; 0x620 <main+0xc0>
 60c:	26 df       	rcall	.-436    	; 0x45a <_ZN7JICE_io3getEv>
 60e:	f7 01       	movw	r30, r14
 610:	86 83       	std	Z+6, r24	; 0x06
 612:	b4 01       	movw	r22, r8
 614:	59 de       	rcall	.-846    	; 0x2c8 <_ZN3CRC4nextEhj>
 616:	4c 01       	movw	r8, r24
 618:	ff ef       	ldi	r31, 0xFF	; 255
 61a:	ef 1a       	sub	r14, r31
 61c:	ff 0a       	sbc	r15, r31
 61e:	f3 cf       	rjmp	.-26     	; 0x606 <main+0xa6>
 620:	1c df       	rcall	.-456    	; 0x45a <_ZN7JICE_io3getEv>
 622:	f8 2e       	mov	r15, r24
 624:	1a df       	rcall	.-460    	; 0x45a <_ZN7JICE_io3getEv>
 626:	98 2f       	mov	r25, r24
 628:	8f 2d       	mov	r24, r15
 62a:	88 16       	cp	r8, r24
 62c:	99 06       	cpc	r9, r25
 62e:	09 f0       	breq	.+2      	; 0x632 <main+0xd2>
 630:	c3 cf       	rjmp	.-122    	; 0x5b8 <main+0x58>
 632:	f8 01       	movw	r30, r16
 634:	86 81       	ldd	r24, Z+6	; 0x06
 636:	88 30       	cpi	r24, 0x08	; 8
 638:	09 f4       	brne	.+2      	; 0x63c <main+0xdc>
 63a:	e4 c0       	rjmp	.+456    	; 0x804 <main+0x2a4>
 63c:	e8 f4       	brcc	.+58     	; 0x678 <main+0x118>
 63e:	82 30       	cpi	r24, 0x02	; 2
 640:	09 f4       	brne	.+2      	; 0x644 <main+0xe4>
 642:	d4 c0       	rjmp	.+424    	; 0x7ec <main+0x28c>
 644:	38 f4       	brcc	.+14     	; 0x654 <main+0xf4>
 646:	88 23       	and	r24, r24
 648:	09 f4       	brne	.+2      	; 0x64c <main+0xec>
 64a:	de c0       	rjmp	.+444    	; 0x808 <main+0x2a8>
 64c:	81 30       	cpi	r24, 0x01	; 1
 64e:	89 f1       	breq	.+98     	; 0x6b2 <main+0x152>
 650:	80 ea       	ldi	r24, 0xA0	; 160
 652:	9f c0       	rjmp	.+318    	; 0x792 <main+0x232>
 654:	84 30       	cpi	r24, 0x04	; 4
 656:	09 f4       	brne	.+2      	; 0x65a <main+0xfa>
 658:	18 c1       	rjmp	.+560    	; 0x88a <main+0x32a>
 65a:	08 f4       	brcc	.+2      	; 0x65e <main+0xfe>
 65c:	91 c0       	rjmp	.+290    	; 0x780 <main+0x220>
 65e:	85 30       	cpi	r24, 0x05	; 5
 660:	b9 f7       	brne	.-18     	; 0x650 <main+0xf0>
 662:	b5 de       	rcall	.-662    	; 0x3ce <_ZN4UPDI4lcdsENS_3regE.constprop.1>
 664:	88 30       	cpi	r24, 0x08	; 8
 666:	09 f4       	brne	.+2      	; 0x66a <main+0x10a>
 668:	e6 c0       	rjmp	.+460    	; 0x836 <main+0x2d6>
 66a:	f8 01       	movw	r30, r16
 66c:	53 82       	std	Z+3, r5	; 0x03
 66e:	42 82       	std	Z+2, r4	; 0x02
 670:	25 ea       	ldi	r18, 0xA5	; 165
 672:	26 83       	std	Z+6, r18	; 0x06
 674:	81 e0       	ldi	r24, 0x01	; 1
 676:	d6 c0       	rjmp	.+428    	; 0x824 <main+0x2c4>
 678:	8f 30       	cpi	r24, 0x0F	; 15
 67a:	09 f4       	brne	.+2      	; 0x67e <main+0x11e>
 67c:	c3 c0       	rjmp	.+390    	; 0x804 <main+0x2a4>
 67e:	78 f4       	brcc	.+30     	; 0x69e <main+0x13e>
 680:	8b 30       	cpi	r24, 0x0B	; 11
 682:	a9 f0       	breq	.+42     	; 0x6ae <main+0x14e>
 684:	8c 30       	cpi	r24, 0x0C	; 12
 686:	21 f7       	brne	.-56     	; 0x650 <main+0xf0>
 688:	ee ef       	ldi	r30, 0xFE	; 254
 68a:	f1 e0       	ldi	r31, 0x01	; 1
 68c:	80 81       	ld	r24, Z
 68e:	80 93 02 01 	sts	0x0102, r24	; 0x800102 <flash_pagesize>
 692:	e0 e0       	ldi	r30, 0x00	; 0
 694:	f2 e0       	ldi	r31, 0x02	; 2
 696:	80 81       	ld	r24, Z
 698:	80 93 01 01 	sts	0x0101, r24	; 0x800101 <eeprom_pagesize>
 69c:	b3 c0       	rjmp	.+358    	; 0x804 <main+0x2a4>
 69e:	85 31       	cpi	r24, 0x15	; 21
 6a0:	09 f4       	brne	.+2      	; 0x6a4 <main+0x144>
 6a2:	b5 c0       	rjmp	.+362    	; 0x80e <main+0x2ae>
 6a4:	84 33       	cpi	r24, 0x34	; 52
 6a6:	09 f4       	brne	.+2      	; 0x6aa <main+0x14a>
 6a8:	5e c1       	rjmp	.+700    	; 0x966 <__stack+0x67>
 6aa:	84 31       	cpi	r24, 0x14	; 20
 6ac:	89 f6       	brne	.-94     	; 0x650 <main+0xf0>
 6ae:	3a df       	rcall	.-396    	; 0x524 <_ZN5JTAG214enter_progmodeEv>
 6b0:	3a c0       	rjmp	.+116    	; 0x726 <main+0x1c6>
 6b2:	92 e0       	ldi	r25, 0x02	; 2
 6b4:	90 93 00 01 	sts	0x0100, r25	; 0x800100 <_edata>
 6b8:	24 e0       	ldi	r18, 0x04	; 4
 6ba:	20 93 03 01 	sts	0x0103, r18	; 0x800103 <_ZN5JTAG219PARAM_BAUD_RATE_VALE>
 6be:	15 bc       	out	0x25, r1	; 37
 6c0:	26 e4       	ldi	r18, 0x46	; 70
 6c2:	27 bd       	out	0x27, r18	; 39
 6c4:	25 e4       	ldi	r18, 0x45	; 69
 6c6:	26 bd       	out	0x26, r18	; 38
 6c8:	52 e8       	ldi	r21, 0x82	; 130
 6ca:	f5 2e       	mov	r15, r21
 6cc:	f4 bc       	out	0x24, r15	; 36
 6ce:	85 bd       	out	0x25, r24	; 37
 6d0:	56 9a       	sbi	0x0a, 6	; 10
 6d2:	95 bb       	out	0x15, r25	; 21
 6d4:	06 de       	rcall	.-1012   	; 0x2e2 <_ZZN7UPDI_io3putENS_4ctrlEENKUlvE_clEv.isra.0>
 6d6:	f4 bc       	out	0x24, r15	; 36
 6d8:	a9 9b       	sbis	0x15, 1	; 21
 6da:	fe cf       	rjmp	.-4      	; 0x6d8 <main+0x178>
 6dc:	82 e0       	ldi	r24, 0x02	; 2
 6de:	85 bb       	out	0x15, r24	; 21
 6e0:	56 9a       	sbi	0x0a, 6	; 10
 6e2:	ff dd       	rcall	.-1026   	; 0x2e2 <_ZZN7UPDI_io3putENS_4ctrlEENKUlvE_clEv.isra.0>
 6e4:	a9 9b       	sbis	0x15, 1	; 21
 6e6:	fe cf       	rjmp	.-4      	; 0x6e4 <main+0x184>
 6e8:	82 e0       	ldi	r24, 0x02	; 2
 6ea:	85 bb       	out	0x15, r24	; 21
 6ec:	86 e4       	ldi	r24, 0x46	; 70
 6ee:	87 bd       	out	0x27, r24	; 39
 6f0:	85 e4       	ldi	r24, 0x45	; 69
 6f2:	86 bd       	out	0x26, r24	; 38
 6f4:	81 e0       	ldi	r24, 0x01	; 1
 6f6:	85 bd       	out	0x25, r24	; 37
 6f8:	85 e5       	ldi	r24, 0x55	; 85
 6fa:	2d de       	rcall	.-934    	; 0x356 <_ZN7UPDI_io3putEc>
 6fc:	82 ec       	ldi	r24, 0xC2	; 194
 6fe:	2b de       	rcall	.-938    	; 0x356 <_ZN7UPDI_io3putEc>
 700:	86 e0       	ldi	r24, 0x06	; 6
 702:	29 de       	rcall	.-942    	; 0x356 <_ZN7UPDI_io3putEc>
 704:	2d e1       	ldi	r18, 0x1D	; 29
 706:	30 e0       	ldi	r19, 0x00	; 0
 708:	f8 01       	movw	r30, r16
 70a:	33 83       	std	Z+3, r19	; 0x03
 70c:	22 83       	std	Z+2, r18	; 0x02
 70e:	e8 e6       	ldi	r30, 0x68	; 104
 710:	f0 e0       	ldi	r31, 0x00	; 0
 712:	aa e0       	ldi	r26, 0x0A	; 10
 714:	b1 e0       	ldi	r27, 0x01	; 1
 716:	c6 01       	movw	r24, r12
 718:	83 96       	adiw	r24, 0x23	; 35
 71a:	24 91       	lpm	r18, Z
 71c:	2d 93       	st	X+, r18
 71e:	31 96       	adiw	r30, 0x01	; 1
 720:	8a 17       	cp	r24, r26
 722:	9b 07       	cpc	r25, r27
 724:	d1 f7       	brne	.-12     	; 0x71a <main+0x1ba>
 726:	8b e1       	ldi	r24, 0x1B	; 27
 728:	a0 de       	rcall	.-704    	; 0x46a <_ZN7JICE_io3putEc>
 72a:	6f ef       	ldi	r22, 0xFF	; 255
 72c:	7f ef       	ldi	r23, 0xFF	; 255
 72e:	cc dd       	rcall	.-1128   	; 0x2c8 <_ZN3CRC4nextEhj>
 730:	7c 01       	movw	r14, r24
 732:	f6 01       	movw	r30, r12
 734:	81 91       	ld	r24, Z+
 736:	6f 01       	movw	r12, r30
 738:	98 de       	rcall	.-720    	; 0x46a <_ZN7JICE_io3putEc>
 73a:	b7 01       	movw	r22, r14
 73c:	c5 dd       	rcall	.-1142   	; 0x2c8 <_ZN3CRC4nextEhj>
 73e:	7c 01       	movw	r14, r24
 740:	c6 14       	cp	r12, r6
 742:	d7 04       	cpc	r13, r7
 744:	b1 f7       	brne	.-20     	; 0x732 <main+0x1d2>
 746:	8e e0       	ldi	r24, 0x0E	; 14
 748:	90 de       	rcall	.-736    	; 0x46a <_ZN7JICE_io3putEc>
 74a:	b7 01       	movw	r22, r14
 74c:	bd dd       	rcall	.-1158   	; 0x2c8 <_ZN3CRC4nextEhj>
 74e:	5c 01       	movw	r10, r24
 750:	9a e0       	ldi	r25, 0x0A	; 10
 752:	e9 2e       	mov	r14, r25
 754:	91 e0       	ldi	r25, 0x01	; 1
 756:	f9 2e       	mov	r15, r25
 758:	d1 2c       	mov	r13, r1
 75a:	c1 2c       	mov	r12, r1
 75c:	f8 01       	movw	r30, r16
 75e:	82 81       	ldd	r24, Z+2	; 0x02
 760:	93 81       	ldd	r25, Z+3	; 0x03
 762:	c8 16       	cp	r12, r24
 764:	d9 06       	cpc	r13, r25
 766:	08 f0       	brcs	.+2      	; 0x76a <main+0x20a>
 768:	1b c1       	rjmp	.+566    	; 0x9a0 <__stack+0xa1>
 76a:	f7 01       	movw	r30, r14
 76c:	81 91       	ld	r24, Z+
 76e:	7f 01       	movw	r14, r30
 770:	7c de       	rcall	.-776    	; 0x46a <_ZN7JICE_io3putEc>
 772:	b5 01       	movw	r22, r10
 774:	a9 dd       	rcall	.-1198   	; 0x2c8 <_ZN3CRC4nextEhj>
 776:	5c 01       	movw	r10, r24
 778:	ff ef       	ldi	r31, 0xFF	; 255
 77a:	cf 1a       	sub	r12, r31
 77c:	df 0a       	sbc	r13, r31
 77e:	ee cf       	rjmp	.-36     	; 0x75c <main+0x1fc>
 780:	87 81       	ldd	r24, Z+7	; 0x07
 782:	83 30       	cpi	r24, 0x03	; 3
 784:	41 f1       	breq	.+80     	; 0x7d6 <main+0x276>
 786:	38 f4       	brcc	.+14     	; 0x796 <main+0x236>
 788:	81 30       	cpi	r24, 0x01	; 1
 78a:	89 f0       	breq	.+34     	; 0x7ae <main+0x24e>
 78c:	82 30       	cpi	r24, 0x02	; 2
 78e:	b1 f0       	breq	.+44     	; 0x7bc <main+0x25c>
 790:	81 ea       	ldi	r24, 0xA1	; 161
 792:	c0 de       	rcall	.-640    	; 0x514 <_ZN5JTAG210set_statusEh>
 794:	c8 cf       	rjmp	.-112    	; 0x726 <main+0x1c6>
 796:	85 30       	cpi	r24, 0x05	; 5
 798:	21 f1       	breq	.+72     	; 0x7e2 <main+0x282>
 79a:	86 30       	cpi	r24, 0x06	; 6
 79c:	c9 f7       	brne	.-14     	; 0x790 <main+0x230>
 79e:	23 e0       	ldi	r18, 0x03	; 3
 7a0:	30 e0       	ldi	r19, 0x00	; 0
 7a2:	33 83       	std	Z+3, r19	; 0x03
 7a4:	22 83       	std	Z+2, r18	; 0x02
 7a6:	88 e8       	ldi	r24, 0x88	; 136
 7a8:	87 83       	std	Z+7, r24	; 0x07
 7aa:	83 e1       	ldi	r24, 0x13	; 19
 7ac:	05 c0       	rjmp	.+10     	; 0x7b8 <main+0x258>
 7ae:	23 e0       	ldi	r18, 0x03	; 3
 7b0:	30 e0       	ldi	r19, 0x00	; 0
 7b2:	33 83       	std	Z+3, r19	; 0x03
 7b4:	22 83       	std	Z+2, r18	; 0x02
 7b6:	87 83       	std	Z+7, r24	; 0x07
 7b8:	80 87       	std	Z+8, r24	; 0x08
 7ba:	09 c0       	rjmp	.+18     	; 0x7ce <main+0x26e>
 7bc:	25 e0       	ldi	r18, 0x05	; 5
 7be:	30 e0       	ldi	r19, 0x00	; 0
 7c0:	33 83       	std	Z+3, r19	; 0x03
 7c2:	22 83       	std	Z+2, r18	; 0x02
 7c4:	17 82       	std	Z+7, r1	; 0x07
 7c6:	86 e0       	ldi	r24, 0x06	; 6
 7c8:	80 87       	std	Z+8, r24	; 0x08
 7ca:	11 86       	std	Z+9, r1	; 0x09
 7cc:	82 87       	std	Z+10, r24	; 0x0a
 7ce:	81 e8       	ldi	r24, 0x81	; 129
 7d0:	f8 01       	movw	r30, r16
 7d2:	86 83       	std	Z+6, r24	; 0x06
 7d4:	a8 cf       	rjmp	.-176    	; 0x726 <main+0x1c6>
 7d6:	53 82       	std	Z+3, r5	; 0x03
 7d8:	42 82       	std	Z+2, r4	; 0x02
 7da:	80 91 00 01 	lds	r24, 0x0100	; 0x800100 <_edata>
 7de:	87 83       	std	Z+7, r24	; 0x07
 7e0:	f6 cf       	rjmp	.-20     	; 0x7ce <main+0x26e>
 7e2:	53 82       	std	Z+3, r5	; 0x03
 7e4:	42 82       	std	Z+2, r4	; 0x02
 7e6:	80 91 03 01 	lds	r24, 0x0103	; 0x800103 <_ZN5JTAG219PARAM_BAUD_RATE_VALE>
 7ea:	f9 cf       	rjmp	.-14     	; 0x7de <main+0x27e>
 7ec:	87 81       	ldd	r24, Z+7	; 0x07
 7ee:	83 30       	cpi	r24, 0x03	; 3
 7f0:	31 f0       	breq	.+12     	; 0x7fe <main+0x29e>
 7f2:	85 30       	cpi	r24, 0x05	; 5
 7f4:	69 f6       	brne	.-102    	; 0x790 <main+0x230>
 7f6:	80 85       	ldd	r24, Z+8	; 0x08
 7f8:	80 93 03 01 	sts	0x0103, r24	; 0x800103 <_ZN5JTAG219PARAM_BAUD_RATE_VALE>
 7fc:	03 c0       	rjmp	.+6      	; 0x804 <main+0x2a4>
 7fe:	80 85       	ldd	r24, Z+8	; 0x08
 800:	80 93 00 01 	sts	0x0100, r24	; 0x800100 <_edata>
 804:	80 e8       	ldi	r24, 0x80	; 128
 806:	c5 cf       	rjmp	.-118    	; 0x792 <main+0x232>
 808:	84 e0       	ldi	r24, 0x04	; 4
 80a:	80 93 03 01 	sts	0x0103, r24	; 0x800103 <_ZN5JTAG219PARAM_BAUD_RATE_VALE>
 80e:	df dd       	rcall	.-1090   	; 0x3ce <_ZN4UPDI4lcdsENS_3regE.constprop.1>
 810:	8f 7e       	andi	r24, 0xEF	; 239
 812:	88 30       	cpi	r24, 0x08	; 8
 814:	49 f0       	breq	.+18     	; 0x828 <main+0x2c8>
 816:	82 38       	cpi	r24, 0x82	; 130
 818:	61 f0       	breq	.+24     	; 0x832 <main+0x2d2>
 81a:	f8 01       	movw	r30, r16
 81c:	53 82       	std	Z+3, r5	; 0x03
 81e:	42 82       	std	Z+2, r4	; 0x02
 820:	25 ea       	ldi	r18, 0xA5	; 165
 822:	26 83       	std	Z+6, r18	; 0x06
 824:	87 83       	std	Z+7, r24	; 0x07
 826:	7f cf       	rjmp	.-258    	; 0x726 <main+0x1c6>
 828:	d7 dd       	rcall	.-1106   	; 0x3d8 <_ZN4UPDI9CPU_resetEv>
 82a:	d1 dd       	rcall	.-1118   	; 0x3ce <_ZN4UPDI4lcdsENS_3regE.constprop.1>
 82c:	8f 7e       	andi	r24, 0xEF	; 239
 82e:	82 38       	cpi	r24, 0x82	; 130
 830:	e1 f7       	brne	.-8      	; 0x82a <main+0x2ca>
 832:	2d 98       	cbi	0x05, 5	; 5
 834:	e7 cf       	rjmp	.-50     	; 0x804 <main+0x2a4>
 836:	f8 01       	movw	r30, r16
 838:	e0 84       	ldd	r14, Z+8	; 0x08
 83a:	f1 84       	ldd	r15, Z+9	; 0x09
 83c:	84 85       	ldd	r24, Z+12	; 0x0c
 83e:	95 85       	ldd	r25, Z+13	; 0x0d
 840:	df dd       	rcall	.-1090   	; 0x400 <_ZN4UPDI7stptr_wEj>
 842:	8f ef       	ldi	r24, 0xFF	; 255
 844:	8e 0d       	add	r24, r14
 846:	02 de       	rcall	.-1020   	; 0x44c <_ZN4UPDI3repEh>
 848:	85 e5       	ldi	r24, 0x55	; 85
 84a:	85 dd       	rcall	.-1270   	; 0x356 <_ZN7UPDI_io3putEc>
 84c:	84 e2       	ldi	r24, 0x24	; 36
 84e:	83 dd       	rcall	.-1274   	; 0x356 <_ZN7UPDI_io3putEc>
 850:	5b dd       	rcall	.-1354   	; 0x308 <_ZN7UPDI_io3getEv>
 852:	f8 01       	movw	r30, r16
 854:	87 83       	std	Z+7, r24	; 0x07
 856:	3c e0       	ldi	r19, 0x0C	; 12
 858:	a3 2e       	mov	r10, r19
 85a:	31 e0       	ldi	r19, 0x01	; 1
 85c:	b3 2e       	mov	r11, r19
 85e:	42 e0       	ldi	r20, 0x02	; 2
 860:	84 2e       	mov	r8, r20
 862:	91 2c       	mov	r9, r1
 864:	e8 14       	cp	r14, r8
 866:	f9 04       	cpc	r15, r9
 868:	40 f0       	brcs	.+16     	; 0x87a <main+0x31a>
 86a:	4e dd       	rcall	.-1380   	; 0x308 <_ZN7UPDI_io3getEv>
 86c:	f5 01       	movw	r30, r10
 86e:	81 93       	st	Z+, r24
 870:	5f 01       	movw	r10, r30
 872:	ff ef       	ldi	r31, 0xFF	; 255
 874:	8f 1a       	sub	r8, r31
 876:	9f 0a       	sbc	r9, r31
 878:	f5 cf       	rjmp	.-22     	; 0x864 <main+0x304>
 87a:	2f ef       	ldi	r18, 0xFF	; 255
 87c:	e2 1a       	sub	r14, r18
 87e:	f2 0a       	sbc	r15, r18
 880:	f8 01       	movw	r30, r16
 882:	f3 82       	std	Z+3, r15	; 0x03
 884:	e2 82       	std	Z+2, r14	; 0x02
 886:	82 e8       	ldi	r24, 0x82	; 130
 888:	a4 cf       	rjmp	.-184    	; 0x7d2 <main+0x272>
 88a:	a1 dd       	rcall	.-1214   	; 0x3ce <_ZN4UPDI4lcdsENS_3regE.constprop.1>
 88c:	88 30       	cpi	r24, 0x08	; 8
 88e:	09 f0       	breq	.+2      	; 0x892 <main+0x332>
 890:	ec ce       	rjmp	.-552    	; 0x66a <main+0x10a>
 892:	f8 01       	movw	r30, r16
 894:	87 81       	ldd	r24, Z+7	; 0x07
 896:	b4 84       	ldd	r11, Z+12	; 0x0c
 898:	a5 84       	ldd	r10, Z+13	; 0x0d
 89a:	90 e4       	ldi	r25, 0x40	; 64
 89c:	98 0f       	add	r25, r24
 89e:	90 90 02 01 	lds	r9, 0x0102	; 0x800102 <flash_pagesize>
 8a2:	88 24       	eor	r8, r8
 8a4:	83 94       	inc	r8
 8a6:	92 30       	cpi	r25, 0x02	; 2
 8a8:	f0 f0       	brcs	.+60     	; 0x8e6 <main+0x386>
 8aa:	90 90 01 01 	lds	r9, 0x0101	; 0x800101 <eeprom_pagesize>
 8ae:	82 3b       	cpi	r24, 0xB2	; 178
 8b0:	38 f0       	brcs	.+14     	; 0x8c0 <main+0x360>
 8b2:	84 3b       	cpi	r24, 0xB4	; 180
 8b4:	38 f0       	brcs	.+14     	; 0x8c4 <main+0x364>
 8b6:	84 5c       	subi	r24, 0xC4	; 196
 8b8:	23 e0       	ldi	r18, 0x03	; 3
 8ba:	82 2e       	mov	r8, r18
 8bc:	82 30       	cpi	r24, 0x02	; 2
 8be:	98 f0       	brcs	.+38     	; 0x8e6 <main+0x386>
 8c0:	82 ea       	ldi	r24, 0xA2	; 162
 8c2:	67 cf       	rjmp	.-306    	; 0x792 <main+0x232>
 8c4:	f0 88       	ldd	r15, Z+16	; 0x10
 8c6:	86 e0       	ldi	r24, 0x06	; 6
 8c8:	90 e1       	ldi	r25, 0x10	; 16
 8ca:	9a dd       	rcall	.-1228   	; 0x400 <_ZN4UPDI7stptr_wEj>
 8cc:	8f 2d       	mov	r24, r15
 8ce:	90 dd       	rcall	.-1248   	; 0x3f0 <_ZN4UPDI7stinc_bEh>
 8d0:	80 e0       	ldi	r24, 0x00	; 0
 8d2:	8e dd       	rcall	.-1252   	; 0x3f0 <_ZN4UPDI7stinc_bEh>
 8d4:	8b 2d       	mov	r24, r11
 8d6:	8c dd       	rcall	.-1256   	; 0x3f0 <_ZN4UPDI7stinc_bEh>
 8d8:	8a 2d       	mov	r24, r10
 8da:	8a dd       	rcall	.-1260   	; 0x3f0 <_ZN4UPDI7stinc_bEh>
 8dc:	67 e0       	ldi	r22, 0x07	; 7
 8de:	80 e0       	ldi	r24, 0x00	; 0
 8e0:	90 e1       	ldi	r25, 0x10	; 16
 8e2:	a5 dd       	rcall	.-1206   	; 0x42e <_ZN4UPDI5sts_bEjh>
 8e4:	8f cf       	rjmp	.-226    	; 0x804 <main+0x2a4>
 8e6:	f8 01       	movw	r30, r16
 8e8:	e0 84       	ldd	r14, Z+8	; 0x08
 8ea:	f1 84       	ldd	r15, Z+9	; 0x09
 8ec:	8a e0       	ldi	r24, 0x0A	; 10
 8ee:	89 83       	std	Y+1, r24	; 0x01
 8f0:	8b 2d       	mov	r24, r11
 8f2:	9a 2d       	mov	r25, r10
 8f4:	85 dd       	rcall	.-1270   	; 0x400 <_ZN4UPDI7stptr_wEj>
 8f6:	b1 94       	neg	r11
 8f8:	8f ef       	ldi	r24, 0xFF	; 255
 8fa:	89 0d       	add	r24, r9
 8fc:	b8 22       	and	r11, r24
 8fe:	be 14       	cp	r11, r14
 900:	1f 04       	cpc	r1, r15
 902:	11 f0       	breq	.+4      	; 0x908 <__stack+0x9>
 904:	08 f0       	brcs	.+2      	; 0x908 <__stack+0x9>
 906:	be 2c       	mov	r11, r14
 908:	bb 20       	and	r11, r11
 90a:	79 f0       	breq	.+30     	; 0x92a <__stack+0x2b>
 90c:	be 01       	movw	r22, r28
 90e:	6f 5f       	subi	r22, 0xFF	; 255
 910:	7f 4f       	sbci	r23, 0xFF	; 255
 912:	8b 2d       	mov	r24, r11
 914:	b2 dd       	rcall	.-1180   	; 0x47a <_ZZ18NVM_buffered_writejjhhENKUlhRhE_clEhS_.isra.4>
 916:	eb 18       	sub	r14, r11
 918:	f1 08       	sbc	r15, r1
 91a:	7d dd       	rcall	.-1286   	; 0x416 <_ZN4UPDI7ldptr_wEv>
 91c:	5c 01       	movw	r10, r24
 91e:	68 2d       	mov	r22, r8
 920:	80 e0       	ldi	r24, 0x00	; 0
 922:	90 e1       	ldi	r25, 0x10	; 16
 924:	84 dd       	rcall	.-1272   	; 0x42e <_ZN4UPDI5sts_bEjh>
 926:	c5 01       	movw	r24, r10
 928:	6b dd       	rcall	.-1322   	; 0x400 <_ZN4UPDI7stptr_wEj>
 92a:	29 2c       	mov	r2, r9
 92c:	31 2c       	mov	r3, r1
 92e:	e1 14       	cp	r14, r1
 930:	f1 04       	cpc	r15, r1
 932:	09 f4       	brne	.+2      	; 0x936 <__stack+0x37>
 934:	67 cf       	rjmp	.-306    	; 0x804 <main+0x2a4>
 936:	be 01       	movw	r22, r28
 938:	6f 5f       	subi	r22, 0xFF	; 255
 93a:	7f 4f       	sbci	r23, 0xFF	; 255
 93c:	e2 14       	cp	r14, r2
 93e:	f3 04       	cpc	r15, r3
 940:	68 f0       	brcs	.+26     	; 0x95c <__stack+0x5d>
 942:	89 2d       	mov	r24, r9
 944:	9a dd       	rcall	.-1228   	; 0x47a <_ZZ18NVM_buffered_writejjhhENKUlhRhE_clEhS_.isra.4>
 946:	e2 18       	sub	r14, r2
 948:	f3 08       	sbc	r15, r3
 94a:	65 dd       	rcall	.-1334   	; 0x416 <_ZN4UPDI7ldptr_wEv>
 94c:	5c 01       	movw	r10, r24
 94e:	68 2d       	mov	r22, r8
 950:	80 e0       	ldi	r24, 0x00	; 0
 952:	90 e1       	ldi	r25, 0x10	; 16
 954:	6c dd       	rcall	.-1320   	; 0x42e <_ZN4UPDI5sts_bEjh>
 956:	c5 01       	movw	r24, r10
 958:	53 dd       	rcall	.-1370   	; 0x400 <_ZN4UPDI7stptr_wEj>
 95a:	e9 cf       	rjmp	.-46     	; 0x92e <__stack+0x2f>
 95c:	8e 2d       	mov	r24, r14
 95e:	8d dd       	rcall	.-1254   	; 0x47a <_ZZ18NVM_buffered_writejjhhENKUlhRhE_clEhS_.isra.4>
 960:	f1 2c       	mov	r15, r1
 962:	e1 2c       	mov	r14, r1
 964:	f2 cf       	rjmp	.-28     	; 0x94a <__stack+0x4b>
 966:	87 81       	ldd	r24, Z+7	; 0x07
 968:	86 30       	cpi	r24, 0x06	; 6
 96a:	60 f4       	brcc	.+24     	; 0x984 <__stack+0x85>
 96c:	84 30       	cpi	r24, 0x04	; 4
 96e:	70 f4       	brcc	.+28     	; 0x98c <__stack+0x8d>
 970:	81 11       	cpse	r24, r1
 972:	6e ce       	rjmp	.-804    	; 0x650 <main+0xf0>
 974:	85 e8       	ldi	r24, 0x85	; 133
 976:	90 e0       	ldi	r25, 0x00	; 0
 978:	b4 dd       	rcall	.-1176   	; 0x4e2 <_ZN4UPDI9write_keyIK5flashIhEEEvRA8_T_>
 97a:	2e dd       	rcall	.-1444   	; 0x3d8 <_ZN4UPDI9CPU_resetEv>
 97c:	28 dd       	rcall	.-1456   	; 0x3ce <_ZN4UPDI4lcdsENS_3regE.constprop.1>
 97e:	80 fd       	sbrc	r24, 0
 980:	fd cf       	rjmp	.-6      	; 0x97c <__stack+0x7d>
 982:	95 ce       	rjmp	.-726    	; 0x6ae <main+0x14e>
 984:	88 30       	cpi	r24, 0x08	; 8
 986:	08 f4       	brcc	.+2      	; 0x98a <__stack+0x8b>
 988:	3d cf       	rjmp	.-390    	; 0x804 <main+0x2a4>
 98a:	62 ce       	rjmp	.-828    	; 0x650 <main+0xf0>
 98c:	e0 84       	ldd	r14, Z+8	; 0x08
 98e:	f1 84       	ldd	r15, Z+9	; 0x09
 990:	15 dd       	rcall	.-1494   	; 0x3bc <_ZN4UPDI5lds_bEj.constprop.2>
 992:	83 70       	andi	r24, 0x03	; 3
 994:	e9 f7       	brne	.-6      	; 0x990 <__stack+0x91>
 996:	6f ef       	ldi	r22, 0xFF	; 255
 998:	c7 01       	movw	r24, r14
 99a:	49 dd       	rcall	.-1390   	; 0x42e <_ZN4UPDI5sts_bEjh>
 99c:	62 e0       	ldi	r22, 0x02	; 2
 99e:	9f cf       	rjmp	.-194    	; 0x8de <main+0x37e>
 9a0:	8a 2d       	mov	r24, r10
 9a2:	63 dd       	rcall	.-1338   	; 0x46a <_ZN7JICE_io3putEc>
 9a4:	8b 2d       	mov	r24, r11
 9a6:	61 dd       	rcall	.-1342   	; 0x46a <_ZN7JICE_io3putEc>
 9a8:	e0 ec       	ldi	r30, 0xC0	; 192
 9aa:	f0 e0       	ldi	r31, 0x00	; 0
 9ac:	80 81       	ld	r24, Z
 9ae:	80 64       	ori	r24, 0x40	; 64
 9b0:	80 83       	st	Z, r24
 9b2:	e0 ec       	ldi	r30, 0xC0	; 192
 9b4:	f0 e0       	ldi	r31, 0x00	; 0
 9b6:	80 81       	ld	r24, Z
 9b8:	86 ff       	sbrs	r24, 6
 9ba:	fb cf       	rjmp	.-10     	; 0x9b2 <__stack+0xb3>
 9bc:	e0 91 03 01 	lds	r30, 0x0103	; 0x800103 <_ZN5JTAG219PARAM_BAUD_RATE_VALE>
 9c0:	e1 50       	subi	r30, 0x01	; 1
 9c2:	ff 0b       	sbc	r31, r31
 9c4:	ee 0f       	add	r30, r30
 9c6:	ff 1f       	adc	r31, r31
 9c8:	e3 57       	subi	r30, 0x73	; 115
 9ca:	ff 4f       	sbci	r31, 0xFF	; 255
 9cc:	85 91       	lpm	r24, Z+
 9ce:	94 91       	lpm	r25, Z
 9d0:	e4 ec       	ldi	r30, 0xC4	; 196
 9d2:	f0 e0       	ldi	r31, 0x00	; 0
 9d4:	91 83       	std	Z+1, r25	; 0x01
 9d6:	80 83       	st	Z, r24
 9d8:	ef cd       	rjmp	.-1058   	; 0x5b8 <main+0x58>

000009da <_exit>:
 9da:	f8 94       	cli

000009dc <__stop_program>:
 9dc:	ff cf       	rjmp	.-2      	; 0x9dc <__stop_program>
