
JTAG2UPDI.elf:     file format elf32-avr

Sections:
Idx Name          Size      VMA       LMA       File off  Algn
  0 .data         00000000  00800100  00800100  00000b0a  2**0
                  CONTENTS, ALLOC, LOAD, DATA
  1 .text         00000a96  00000000  00000000  00000074  2**1
                  CONTENTS, ALLOC, LOAD, READONLY, CODE
  2 .bss          0000020a  00800100  00800100  00000b0a  2**0
                  ALLOC
  3 .comment      00000041  00000000  00000000  00000b0a  2**0
                  CONTENTS, READONLY
  4 .note.gnu.avr.deviceinfo 00000040  00000000  00000000  00000b4c  2**2
                  CONTENTS, READONLY
  5 .debug_aranges 00000040  00000000  00000000  00000b90  2**3
                  CONTENTS, READONLY, DEBUGGING
  6 .debug_info   00000640  00000000  00000000  00000bd0  2**0
                  CONTENTS, READONLY, DEBUGGING
  7 .debug_abbrev 000005ca  00000000  00000000  00001210  2**0
                  CONTENTS, READONLY, DEBUGGING
  8 .debug_line   0000012d  00000000  00000000  000017da  2**0
                  CONTENTS, READONLY, DEBUGGING
  9 .debug_str    00000291  00000000  00000000  00001907  2**0
                  CONTENTS, READONLY, DEBUGGING

Disassembly of section .text:

00000000 <__vectors>:
   0:	52 c1       	rjmp	.+676    	; 0x2a6 <__ctors_end>
   2:	00 00       	nop
   4:	60 c1       	rjmp	.+704    	; 0x2c6 <__bad_interrupt>
   6:	00 00       	nop
   8:	5e c1       	rjmp	.+700    	; 0x2c6 <__bad_interrupt>
   a:	00 00       	nop
   c:	5c c1       	rjmp	.+696    	; 0x2c6 <__bad_interrupt>
   e:	00 00       	nop
  10:	5a c1       	rjmp	.+692    	; 0x2c6 <__bad_interrupt>
  12:	00 00       	nop
  14:	58 c1       	rjmp	.+688    	; 0x2c6 <__bad_interrupt>
  16:	00 00       	nop
  18:	56 c1       	rjmp	.+684    	; 0x2c6 <__bad_interrupt>
  1a:	00 00       	nop
  1c:	54 c1       	rjmp	.+680    	; 0x2c6 <__bad_interrupt>
  1e:	00 00       	nop
  20:	52 c1       	rjmp	.+676    	; 0x2c6 <__bad_interrupt>
  22:	00 00       	nop
  24:	50 c1       	rjmp	.+672    	; 0x2c6 <__bad_interrupt>
  26:	00 00       	nop
  28:	4e c1       	rjmp	.+668    	; 0x2c6 <__bad_interrupt>
  2a:	00 00       	nop
  2c:	4c c1       	rjmp	.+664    	; 0x2c6 <__bad_interrupt>
  2e:	00 00       	nop
  30:	4a c1       	rjmp	.+660    	; 0x2c6 <__bad_interrupt>
  32:	00 00       	nop
  34:	48 c1       	rjmp	.+656    	; 0x2c6 <__bad_interrupt>
  36:	00 00       	nop
  38:	46 c1       	rjmp	.+652    	; 0x2c6 <__bad_interrupt>
  3a:	00 00       	nop
  3c:	44 c1       	rjmp	.+648    	; 0x2c6 <__bad_interrupt>
  3e:	00 00       	nop
  40:	42 c1       	rjmp	.+644    	; 0x2c6 <__bad_interrupt>
  42:	00 00       	nop
  44:	40 c1       	rjmp	.+640    	; 0x2c6 <__bad_interrupt>
  46:	00 00       	nop
  48:	3e c1       	rjmp	.+636    	; 0x2c6 <__bad_interrupt>
  4a:	00 00       	nop
  4c:	3c c1       	rjmp	.+632    	; 0x2c6 <__bad_interrupt>
  4e:	00 00       	nop
  50:	3a c1       	rjmp	.+628    	; 0x2c6 <__bad_interrupt>
  52:	00 00       	nop
  54:	38 c1       	rjmp	.+624    	; 0x2c6 <__bad_interrupt>
  56:	00 00       	nop
  58:	36 c1       	rjmp	.+620    	; 0x2c6 <__bad_interrupt>
  5a:	00 00       	nop
  5c:	34 c1       	rjmp	.+616    	; 0x2c6 <__bad_interrupt>
  5e:	00 00       	nop
  60:	32 c1       	rjmp	.+612    	; 0x2c6 <__bad_interrupt>
  62:	00 00       	nop
  64:	30 c1       	rjmp	.+608    	; 0x2c6 <__bad_interrupt>
	...

00000068 <__trampolines_end>:
  68:	86 01       	movw	r16, r12
  6a:	01 00       	.word	0x0001	; ????
  6c:	06 01       	movw	r0, r12
  6e:	01 00       	.word	0x0001	; ????
  70:	06 01       	movw	r0, r12
  72:	00 00       	nop
  74:	00 00       	nop
  76:	00 00       	nop
  78:	4a 54       	subi	r20, 0x4A	; 74
  7a:	41 47       	sbci	r20, 0x71	; 113
  7c:	49 43       	sbci	r20, 0x39	; 57
  7e:	45 20       	and	r4, r5
  80:	6d 6b       	ori	r22, 0xBD	; 189
  82:	49 49       	sbci	r20, 0x99	; 153
	...

00000085 <_ZN4UPDI10Chip_EraseE>:
  85:	65 73 61 72 45 4d 56 4e                             esarEMVN

0000008d <_ZL8baud_tbl>:
  8d:	40 03 a0 01 cf 00 67 00 33 00 22 00 10 00 8a 00     @.....g.3.".....

0000009d <_ZN4UPDI8NVM_ProgE>:
  9d:	20 67 6f 72 50 4d 56 4e                              gorPMVN

000000a5 <_ZL9crc_table>:
  a5:	00 00 89 11 12 23 9b 32 24 46 ad 57 36 65 bf 74     .....#.2$F.W6e.t
  b5:	48 8c c1 9d 5a af d3 be 6c ca e5 db 7e e9 f7 f8     H...Z...l...~...
  c5:	81 10 08 01 93 33 1a 22 a5 56 2c 47 b7 75 3e 64     .....3.".V,G.u>d
  d5:	c9 9c 40 8d db bf 52 ae ed da 64 cb ff f9 76 e8     ..@...R...d...v.
  e5:	02 21 8b 30 10 02 99 13 26 67 af 76 34 44 bd 55     .!.0....&g.v4D.U
  f5:	4a ad c3 bc 58 8e d1 9f 6e eb e7 fa 7c c8 f5 d9     J...X...n...|...
 105:	83 31 0a 20 91 12 18 03 a7 77 2e 66 b5 54 3c 45     .1. .....w.f.T<E
 115:	cb bd 42 ac d9 9e 50 8f ef fb 66 ea fd d8 74 c9     ..B...P...f...t.
 125:	04 42 8d 53 16 61 9f 70 20 04 a9 15 32 27 bb 36     .B.S.a.p ...2'.6
 135:	4c ce c5 df 5e ed d7 fc 68 88 e1 99 7a ab f3 ba     L...^...h...z...
 145:	85 52 0c 43 97 71 1e 60 a1 14 28 05 b3 37 3a 26     .R.C.q.`..(..7:&
 155:	cd de 44 cf df fd 56 ec e9 98 60 89 fb bb 72 aa     ..D...V...`...r.
 165:	06 63 8f 72 14 40 9d 51 22 25 ab 34 30 06 b9 17     .c.r.@.Q"%.40...
 175:	4e ef c7 fe 5c cc d5 dd 6a a9 e3 b8 78 8a f1 9b     N...\...j...x...
 185:	87 73 0e 62 95 50 1c 41 a3 35 2a 24 b1 16 38 07     .s.b.P.A.5*$..8.
 195:	cf ff 46 ee dd dc 54 cd eb b9 62 a8 f9 9a 70 8b     ..F...T...b...p.
 1a5:	08 84 81 95 1a a7 93 b6 2c c2 a5 d3 3e e1 b7 f0     ........,...>...
 1b5:	40 08 c9 19 52 2b db 3a 64 4e ed 5f 76 6d ff 7c     @...R+.:dN._vm.|
 1c5:	89 94 00 85 9b b7 12 a6 ad d2 24 c3 bf f1 36 e0     ..........$...6.
 1d5:	c1 18 48 09 d3 3b 5a 2a e5 5e 6c 4f f7 7d 7e 6c     ..H..;Z*.^lO.}~l
 1e5:	0a a5 83 b4 18 86 91 97 2e e3 a7 f2 3c c0 b5 d1     ............<...
 1f5:	42 29 cb 38 50 0a d9 1b 66 6f ef 7e 74 4c fd 5d     B).8P...fo.~tL.]
 205:	8b b5 02 a4 99 96 10 87 af f3 26 e2 bd d0 34 c1     ..........&...4.
 215:	c3 39 4a 28 d1 1a 58 0b e7 7f 6e 6e f5 5c 7c 4d     .9J(..X...nn.\|M
 225:	0c c6 85 d7 1e e5 97 f4 28 80 a1 91 3a a3 b3 b2     ........(...:...
 235:	44 4a cd 5b 56 69 df 78 60 0c e9 1d 72 2f fb 3e     DJ.[Vi.x`...r/.>
 245:	8d d6 04 c7 9f f5 16 e4 a9 90 20 81 bb b3 32 a2     .......... ...2.
 255:	c5 5a 4c 4b d7 79 5e 68 e1 1c 68 0d f3 3f 7a 2e     .ZLK.y^h..h..?z.
 265:	0e e7 87 f6 1c c4 95 d5 2a a1 a3 b0 38 82 b1 93     ........*...8...
 275:	46 6b cf 7a 54 48 dd 59 62 2d eb 3c 70 0e f9 1f     Fk.zTH.Yb-.<p...
 285:	8f f7 06 e6 9d d4 14 c5 ab b1 22 a0 b9 92 30 83     .........."...0.
 295:	c7 7b 4e 6a d5 58 5c 49 e3 3d 6a 2c f1 1e 78 0f     .{Nj.X\I.=j,..x.
	...

000002a6 <__ctors_end>:
 2a6:	11 24       	eor	r1, r1
 2a8:	1f be       	out	0x3f, r1	; 63
 2aa:	cf ef       	ldi	r28, 0xFF	; 255
 2ac:	d8 e0       	ldi	r29, 0x08	; 8
 2ae:	de bf       	out	0x3e, r29	; 62
 2b0:	cd bf       	out	0x3d, r28	; 61

000002b2 <__do_clear_bss>:
 2b2:	23 e0       	ldi	r18, 0x03	; 3
 2b4:	a0 e0       	ldi	r26, 0x00	; 0
 2b6:	b1 e0       	ldi	r27, 0x01	; 1
 2b8:	01 c0       	rjmp	.+2      	; 0x2bc <.do_clear_bss_start>

000002ba <.do_clear_bss_loop>:
 2ba:	1d 92       	st	X+, r1

000002bc <.do_clear_bss_start>:
 2bc:	aa 30       	cpi	r26, 0x0A	; 10
 2be:	b2 07       	cpc	r27, r18
 2c0:	e1 f7       	brne	.-8      	; 0x2ba <.do_clear_bss_loop>
 2c2:	60 d1       	rcall	.+704    	; 0x584 <main>
 2c4:	e6 c3       	rjmp	.+1996   	; 0xa92 <_exit>

000002c6 <__bad_interrupt>:
 2c6:	9c ce       	rjmp	.-712    	; 0x0 <__vectors>

000002c8 <_ZN3CRC4nextEhj>:
 2c8:	86 27       	eor	r24, r22
 2ca:	e8 2f       	mov	r30, r24
 2cc:	f0 e0       	ldi	r31, 0x00	; 0
 2ce:	ee 0f       	add	r30, r30
 2d0:	ff 1f       	adc	r31, r31
 2d2:	eb 55       	subi	r30, 0x5B	; 91
 2d4:	ff 4f       	sbci	r31, 0xFF	; 255
 2d6:	25 91       	lpm	r18, Z+
 2d8:	34 91       	lpm	r19, Z
 2da:	87 2f       	mov	r24, r23
 2dc:	90 e0       	ldi	r25, 0x00	; 0
 2de:	82 27       	eor	r24, r18
 2e0:	93 27       	eor	r25, r19
 2e2:	08 95       	ret

000002e4 <_ZZN7UPDI_io3putENS_4ctrlEENKUlvE_clEv.isra.0>:
 2e4:	84 e0       	ldi	r24, 0x04	; 4
 2e6:	85 bd       	out	0x25, r24	; 37
 2e8:	8f e7       	ldi	r24, 0x7F	; 127
 2ea:	87 bd       	out	0x27, r24	; 39
 2ec:	8b e0       	ldi	r24, 0x0B	; 11
 2ee:	92 e0       	ldi	r25, 0x02	; 2
 2f0:	a9 9b       	sbis	0x15, 1	; 21
 2f2:	fe cf       	rjmp	.-4      	; 0x2f0 <_ZZN7UPDI_io3putENS_4ctrlEENKUlvE_clEv.isra.0+0xc>
 2f4:	95 bb       	out	0x15, r25	; 21
 2f6:	81 50       	subi	r24, 0x01	; 1
 2f8:	d9 f7       	brne	.-10     	; 0x2f0 <_ZZN7UPDI_io3putENS_4ctrlEENKUlvE_clEv.isra.0+0xc>
 2fa:	82 ec       	ldi	r24, 0xC2	; 194
 2fc:	84 bd       	out	0x24, r24	; 36
 2fe:	a9 9b       	sbis	0x15, 1	; 21
 300:	fe cf       	rjmp	.-4      	; 0x2fe <_ZZN7UPDI_io3putENS_4ctrlEENKUlvE_clEv.isra.0+0x1a>
 302:	82 e0       	ldi	r24, 0x02	; 2
 304:	85 bb       	out	0x15, r24	; 21
 306:	56 98       	cbi	0x0a, 6	; 10
 308:	08 95       	ret

0000030a <_ZN7UPDI_io3getEv>:
 30a:	15 bc       	out	0x25, r1	; 37
 30c:	9f e1       	ldi	r25, 0x1F	; 31
 30e:	97 bd       	out	0x27, r25	; 39
 310:	9c e0       	ldi	r25, 0x0C	; 12
 312:	96 bd       	out	0x26, r25	; 38
 314:	92 e0       	ldi	r25, 0x02	; 2
 316:	95 bb       	out	0x15, r25	; 21
 318:	5e 98       	cbi	0x0b, 6	; 11
 31a:	4e 99       	sbic	0x09, 6	; 9
 31c:	fe cf       	rjmp	.-4      	; 0x31a <_ZN7UPDI_io3getEv+0x10>
 31e:	91 e0       	ldi	r25, 0x01	; 1
 320:	95 bd       	out	0x25, r25	; 37
 322:	a9 9b       	sbis	0x15, 1	; 21
 324:	fe cf       	rjmp	.-4      	; 0x322 <_ZN7UPDI_io3getEv+0x18>
 326:	92 e0       	ldi	r25, 0x02	; 2
 328:	95 bb       	out	0x15, r25	; 21
 32a:	9f e3       	ldi	r25, 0x3F	; 63
 32c:	97 bd       	out	0x27, r25	; 39
 32e:	28 e0       	ldi	r18, 0x08	; 8
 330:	32 e0       	ldi	r19, 0x02	; 2
 332:	a9 9b       	sbis	0x15, 1	; 21
 334:	fe cf       	rjmp	.-4      	; 0x332 <_ZN7UPDI_io3getEv+0x28>
 336:	35 bb       	out	0x15, r19	; 21
 338:	99 b1       	in	r25, 0x09	; 9
 33a:	99 0f       	add	r25, r25
 33c:	90 78       	andi	r25, 0x80	; 128
 33e:	86 95       	lsr	r24
 340:	89 2b       	or	r24, r25
 342:	21 50       	subi	r18, 0x01	; 1
 344:	b1 f7       	brne	.-20     	; 0x332 <_ZN7UPDI_io3getEv+0x28>
 346:	a9 9b       	sbis	0x15, 1	; 21
 348:	fe cf       	rjmp	.-4      	; 0x346 <_ZN7UPDI_io3getEv+0x3c>
 34a:	92 e0       	ldi	r25, 0x02	; 2
 34c:	95 bb       	out	0x15, r25	; 21
 34e:	9f e9       	ldi	r25, 0x9F	; 159
 350:	97 bd       	out	0x27, r25	; 39
 352:	4e 9b       	sbis	0x09, 6	; 9
 354:	fe cf       	rjmp	.-4      	; 0x352 <_ZN7UPDI_io3getEv+0x48>
 356:	5e 9a       	sbi	0x0b, 6	; 11
 358:	90 e0       	ldi	r25, 0x00	; 0
 35a:	08 95       	ret

0000035c <_ZN7UPDI_io3putEc>:
 35c:	a9 9b       	sbis	0x15, 1	; 21
 35e:	fe cf       	rjmp	.-4      	; 0x35c <_ZN7UPDI_io3putEc>
 360:	92 e0       	ldi	r25, 0x02	; 2
 362:	95 bb       	out	0x15, r25	; 21
 364:	15 bc       	out	0x25, r1	; 37
 366:	2f e3       	ldi	r18, 0x3F	; 63
 368:	27 bd       	out	0x27, r18	; 39
 36a:	2e e3       	ldi	r18, 0x3E	; 62
 36c:	26 bd       	out	0x26, r18	; 38
 36e:	22 e8       	ldi	r18, 0x82	; 130
 370:	24 bd       	out	0x24, r18	; 36
 372:	21 e0       	ldi	r18, 0x01	; 1
 374:	25 bd       	out	0x25, r18	; 37
 376:	56 9a       	sbi	0x0a, 6	; 10
 378:	95 bb       	out	0x15, r25	; 21
 37a:	91 e0       	ldi	r25, 0x01	; 1
 37c:	20 e0       	ldi	r18, 0x00	; 0
 37e:	42 e8       	ldi	r20, 0x82	; 130
 380:	52 ec       	ldi	r21, 0xC2	; 194
 382:	32 e0       	ldi	r19, 0x02	; 2
 384:	68 2f       	mov	r22, r24
 386:	69 23       	and	r22, r25
 388:	d9 f0       	breq	.+54     	; 0x3c0 <_ZN7UPDI_io3putEc+0x64>
 38a:	54 bd       	out	0x24, r21	; 36
 38c:	20 95       	com	r18
 38e:	a9 9b       	sbis	0x15, 1	; 21
 390:	fe cf       	rjmp	.-4      	; 0x38e <_ZN7UPDI_io3putEc+0x32>
 392:	35 bb       	out	0x15, r19	; 21
 394:	99 0f       	add	r25, r25
 396:	b1 f7       	brne	.-20     	; 0x384 <_ZN7UPDI_io3putEc+0x28>
 398:	92 ec       	ldi	r25, 0xC2	; 194
 39a:	21 11       	cpse	r18, r1
 39c:	01 c0       	rjmp	.+2      	; 0x3a0 <_ZN7UPDI_io3putEc+0x44>
 39e:	92 e8       	ldi	r25, 0x82	; 130
 3a0:	94 bd       	out	0x24, r25	; 36
 3a2:	a9 9b       	sbis	0x15, 1	; 21
 3a4:	fe cf       	rjmp	.-4      	; 0x3a2 <_ZN7UPDI_io3putEc+0x46>
 3a6:	92 e0       	ldi	r25, 0x02	; 2
 3a8:	95 bb       	out	0x15, r25	; 21
 3aa:	92 ec       	ldi	r25, 0xC2	; 194
 3ac:	94 bd       	out	0x24, r25	; 36
 3ae:	a9 9b       	sbis	0x15, 1	; 21
 3b0:	fe cf       	rjmp	.-4      	; 0x3ae <_ZN7UPDI_io3putEc+0x52>
 3b2:	92 e0       	ldi	r25, 0x02	; 2
 3b4:	95 bb       	out	0x15, r25	; 21
 3b6:	9f e7       	ldi	r25, 0x7F	; 127
 3b8:	97 bd       	out	0x27, r25	; 39
 3ba:	56 98       	cbi	0x0a, 6	; 10
 3bc:	90 e0       	ldi	r25, 0x00	; 0
 3be:	08 95       	ret
 3c0:	44 bd       	out	0x24, r20	; 36
 3c2:	e5 cf       	rjmp	.-54     	; 0x38e <_ZN7UPDI_io3putEc+0x32>

000003c4 <_ZN4UPDI5lds_bEj.constprop.2>:
 3c4:	85 e5       	ldi	r24, 0x55	; 85
 3c6:	ca df       	rcall	.-108    	; 0x35c <_ZN7UPDI_io3putEc>
 3c8:	84 e0       	ldi	r24, 0x04	; 4
 3ca:	c8 df       	rcall	.-112    	; 0x35c <_ZN7UPDI_io3putEc>
 3cc:	82 e0       	ldi	r24, 0x02	; 2
 3ce:	c6 df       	rcall	.-116    	; 0x35c <_ZN7UPDI_io3putEc>
 3d0:	80 e1       	ldi	r24, 0x10	; 16
 3d2:	c4 df       	rcall	.-120    	; 0x35c <_ZN7UPDI_io3putEc>
 3d4:	9a cf       	rjmp	.-204    	; 0x30a <_ZN7UPDI_io3getEv>

000003d6 <_ZN4UPDI4lcdsENS_3reg5reg_tE.constprop.1>:
 3d6:	85 e5       	ldi	r24, 0x55	; 85
 3d8:	c1 df       	rcall	.-126    	; 0x35c <_ZN7UPDI_io3putEc>
 3da:	8b e8       	ldi	r24, 0x8B	; 139
 3dc:	bf df       	rcall	.-130    	; 0x35c <_ZN7UPDI_io3putEc>
 3de:	95 cf       	rjmp	.-214    	; 0x30a <_ZN7UPDI_io3getEv>

000003e0 <_ZN4UPDI9CPU_resetEv>:
 3e0:	85 e5       	ldi	r24, 0x55	; 85
 3e2:	bc df       	rcall	.-136    	; 0x35c <_ZN7UPDI_io3putEc>
 3e4:	88 ec       	ldi	r24, 0xC8	; 200
 3e6:	ba df       	rcall	.-140    	; 0x35c <_ZN7UPDI_io3putEc>
 3e8:	89 e5       	ldi	r24, 0x59	; 89
 3ea:	b8 df       	rcall	.-144    	; 0x35c <_ZN7UPDI_io3putEc>
 3ec:	85 e5       	ldi	r24, 0x55	; 85
 3ee:	b6 df       	rcall	.-148    	; 0x35c <_ZN7UPDI_io3putEc>
 3f0:	88 ec       	ldi	r24, 0xC8	; 200
 3f2:	b4 df       	rcall	.-152    	; 0x35c <_ZN7UPDI_io3putEc>
 3f4:	80 e0       	ldi	r24, 0x00	; 0
 3f6:	b2 cf       	rjmp	.-156    	; 0x35c <_ZN7UPDI_io3putEc>

000003f8 <_ZN4UPDI7stinc_bEh>:
 3f8:	cf 93       	push	r28
 3fa:	c8 2f       	mov	r28, r24
 3fc:	85 e5       	ldi	r24, 0x55	; 85
 3fe:	ae df       	rcall	.-164    	; 0x35c <_ZN7UPDI_io3putEc>
 400:	84 e6       	ldi	r24, 0x64	; 100
 402:	ac df       	rcall	.-168    	; 0x35c <_ZN7UPDI_io3putEc>
 404:	8c 2f       	mov	r24, r28
 406:	aa df       	rcall	.-172    	; 0x35c <_ZN7UPDI_io3putEc>
 408:	cf 91       	pop	r28
 40a:	7f cf       	rjmp	.-258    	; 0x30a <_ZN7UPDI_io3getEv>

0000040c <_ZN4UPDI7stptr_wEj>:
 40c:	cf 93       	push	r28
 40e:	df 93       	push	r29
 410:	d8 2f       	mov	r29, r24
 412:	c9 2f       	mov	r28, r25
 414:	85 e5       	ldi	r24, 0x55	; 85
 416:	a2 df       	rcall	.-188    	; 0x35c <_ZN7UPDI_io3putEc>
 418:	89 e6       	ldi	r24, 0x69	; 105
 41a:	a0 df       	rcall	.-192    	; 0x35c <_ZN7UPDI_io3putEc>
 41c:	8d 2f       	mov	r24, r29
 41e:	9e df       	rcall	.-196    	; 0x35c <_ZN7UPDI_io3putEc>
 420:	8c 2f       	mov	r24, r28
 422:	9c df       	rcall	.-200    	; 0x35c <_ZN7UPDI_io3putEc>
 424:	df 91       	pop	r29
 426:	cf 91       	pop	r28
 428:	70 cf       	rjmp	.-288    	; 0x30a <_ZN7UPDI_io3getEv>

0000042a <_ZN4UPDI7ldptr_wEv>:
 42a:	cf 93       	push	r28
 42c:	df 93       	push	r29
 42e:	85 e5       	ldi	r24, 0x55	; 85
 430:	95 df       	rcall	.-214    	; 0x35c <_ZN7UPDI_io3putEc>
 432:	89 e2       	ldi	r24, 0x29	; 41
 434:	93 df       	rcall	.-218    	; 0x35c <_ZN7UPDI_io3putEc>
 436:	69 df       	rcall	.-302    	; 0x30a <_ZN7UPDI_io3getEv>
 438:	ec 01       	movw	r28, r24
 43a:	67 df       	rcall	.-306    	; 0x30a <_ZN7UPDI_io3getEv>
 43c:	20 e0       	ldi	r18, 0x00	; 0
 43e:	38 2f       	mov	r19, r24
 440:	c9 01       	movw	r24, r18
 442:	8c 2b       	or	r24, r28
 444:	9d 2b       	or	r25, r29
 446:	df 91       	pop	r29
 448:	cf 91       	pop	r28
 44a:	08 95       	ret

0000044c <_ZN4UPDI5sts_bEjh>:
 44c:	1f 93       	push	r17
 44e:	cf 93       	push	r28
 450:	df 93       	push	r29
 452:	18 2f       	mov	r17, r24
 454:	d9 2f       	mov	r29, r25
 456:	c6 2f       	mov	r28, r22
 458:	85 e5       	ldi	r24, 0x55	; 85
 45a:	80 df       	rcall	.-256    	; 0x35c <_ZN7UPDI_io3putEc>
 45c:	84 e4       	ldi	r24, 0x44	; 68
 45e:	7e df       	rcall	.-260    	; 0x35c <_ZN7UPDI_io3putEc>
 460:	81 2f       	mov	r24, r17
 462:	7c df       	rcall	.-264    	; 0x35c <_ZN7UPDI_io3putEc>
 464:	8d 2f       	mov	r24, r29
 466:	7a df       	rcall	.-268    	; 0x35c <_ZN7UPDI_io3putEc>
 468:	50 df       	rcall	.-352    	; 0x30a <_ZN7UPDI_io3getEv>
 46a:	8c 2f       	mov	r24, r28
 46c:	77 df       	rcall	.-274    	; 0x35c <_ZN7UPDI_io3putEc>
 46e:	df 91       	pop	r29
 470:	cf 91       	pop	r28
 472:	1f 91       	pop	r17
 474:	4a cf       	rjmp	.-364    	; 0x30a <_ZN7UPDI_io3getEv>

00000476 <_ZN7JICE_io3getEv>:
 476:	80 91 c0 00 	lds	r24, 0x00C0	; 0x8000c0 <__TEXT_REGION_LENGTH__+0x7e00c0>
 47a:	87 ff       	sbrs	r24, 7
 47c:	fc cf       	rjmp	.-8      	; 0x476 <_ZN7JICE_io3getEv>
 47e:	80 91 c6 00 	lds	r24, 0x00C6	; 0x8000c6 <__TEXT_REGION_LENGTH__+0x7e00c6>
 482:	08 95       	ret

00000484 <_ZN7JICE_io3putEc>:
 484:	90 91 c0 00 	lds	r25, 0x00C0	; 0x8000c0 <__TEXT_REGION_LENGTH__+0x7e00c0>
 488:	95 ff       	sbrs	r25, 5
 48a:	fc cf       	rjmp	.-8      	; 0x484 <_ZN7JICE_io3putEc>
 48c:	80 93 c6 00 	sts	0x00C6, r24	; 0x8000c6 <__TEXT_REGION_LENGTH__+0x7e00c6>
 490:	08 95       	ret

00000492 <_ZZ18NVM_buffered_writejjhhENKUlhRhE_clEhS_.isra.4>:
 492:	ef 92       	push	r14
 494:	ff 92       	push	r15
 496:	0f 93       	push	r16
 498:	1f 93       	push	r17
 49a:	cf 93       	push	r28
 49c:	df 93       	push	r29
 49e:	08 2f       	mov	r16, r24
 4a0:	eb 01       	movw	r28, r22
 4a2:	c3 df       	rcall	.-122    	; 0x42a <_ZN4UPDI7ldptr_wEv>
 4a4:	7c 01       	movw	r14, r24
 4a6:	8e df       	rcall	.-228    	; 0x3c4 <_ZN4UPDI5lds_bEj.constprop.2>
 4a8:	83 70       	andi	r24, 0x03	; 3
 4aa:	e9 f7       	brne	.-6      	; 0x4a6 <_ZZ18NVM_buffered_writejjhhENKUlhRhE_clEhS_.isra.4+0x14>
 4ac:	c7 01       	movw	r24, r14
 4ae:	ae df       	rcall	.-164    	; 0x40c <_ZN4UPDI7stptr_wEj>
 4b0:	85 e5       	ldi	r24, 0x55	; 85
 4b2:	54 df       	rcall	.-344    	; 0x35c <_ZN7UPDI_io3putEc>
 4b4:	80 ea       	ldi	r24, 0xA0	; 160
 4b6:	52 df       	rcall	.-348    	; 0x35c <_ZN7UPDI_io3putEc>
 4b8:	8f ef       	ldi	r24, 0xFF	; 255
 4ba:	80 0f       	add	r24, r16
 4bc:	4f df       	rcall	.-354    	; 0x35c <_ZN7UPDI_io3putEc>
 4be:	e8 81       	ld	r30, Y
 4c0:	81 e0       	ldi	r24, 0x01	; 1
 4c2:	8e 0f       	add	r24, r30
 4c4:	88 83       	st	Y, r24
 4c6:	f0 e0       	ldi	r31, 0x00	; 0
 4c8:	e6 5f       	subi	r30, 0xF6	; 246
 4ca:	fe 4f       	sbci	r31, 0xFE	; 254
 4cc:	80 81       	ld	r24, Z
 4ce:	94 df       	rcall	.-216    	; 0x3f8 <_ZN4UPDI7stinc_bEh>
 4d0:	f1 2c       	mov	r15, r1
 4d2:	01 50       	subi	r16, 0x01	; 1
 4d4:	11 0b       	sbc	r17, r17
 4d6:	f0 16       	cp	r15, r16
 4d8:	11 06       	cpc	r1, r17
 4da:	64 f4       	brge	.+24     	; 0x4f4 <_ZZ18NVM_buffered_writejjhhENKUlhRhE_clEhS_.isra.4+0x62>
 4dc:	e8 81       	ld	r30, Y
 4de:	81 e0       	ldi	r24, 0x01	; 1
 4e0:	8e 0f       	add	r24, r30
 4e2:	88 83       	st	Y, r24
 4e4:	f0 e0       	ldi	r31, 0x00	; 0
 4e6:	e6 5f       	subi	r30, 0xF6	; 246
 4e8:	fe 4f       	sbci	r31, 0xFE	; 254
 4ea:	80 81       	ld	r24, Z
 4ec:	37 df       	rcall	.-402    	; 0x35c <_ZN7UPDI_io3putEc>
 4ee:	0d df       	rcall	.-486    	; 0x30a <_ZN7UPDI_io3getEv>
 4f0:	f3 94       	inc	r15
 4f2:	f1 cf       	rjmp	.-30     	; 0x4d6 <_ZZ18NVM_buffered_writejjhhENKUlhRhE_clEhS_.isra.4+0x44>
 4f4:	df 91       	pop	r29
 4f6:	cf 91       	pop	r28
 4f8:	1f 91       	pop	r17
 4fa:	0f 91       	pop	r16
 4fc:	ff 90       	pop	r15
 4fe:	ef 90       	pop	r14
 500:	08 95       	ret

00000502 <_ZN4UPDI9write_keyIK5flashIhEEEvRA8_T_>:
 502:	0f 93       	push	r16
 504:	1f 93       	push	r17
 506:	cf 93       	push	r28
 508:	df 93       	push	r29
 50a:	8c 01       	movw	r16, r24
 50c:	85 e5       	ldi	r24, 0x55	; 85
 50e:	26 df       	rcall	.-436    	; 0x35c <_ZN7UPDI_io3putEc>
 510:	80 ee       	ldi	r24, 0xE0	; 224
 512:	24 df       	rcall	.-440    	; 0x35c <_ZN7UPDI_io3putEc>
 514:	d0 e0       	ldi	r29, 0x00	; 0
 516:	c0 e0       	ldi	r28, 0x00	; 0
 518:	f8 01       	movw	r30, r16
 51a:	ec 0f       	add	r30, r28
 51c:	fd 1f       	adc	r31, r29
 51e:	84 91       	lpm	r24, Z
 520:	1d df       	rcall	.-454    	; 0x35c <_ZN7UPDI_io3putEc>
 522:	21 96       	adiw	r28, 0x01	; 1
 524:	c8 30       	cpi	r28, 0x08	; 8
 526:	d1 05       	cpc	r29, r1
 528:	b9 f7       	brne	.-18     	; 0x518 <_ZN4UPDI9write_keyIK5flashIhEEEvRA8_T_+0x16>
 52a:	df 91       	pop	r29
 52c:	cf 91       	pop	r28
 52e:	1f 91       	pop	r17
 530:	0f 91       	pop	r16
 532:	08 95       	ret

00000534 <_ZN5JTAG214enter_progmodeEv>:
 534:	50 df       	rcall	.-352    	; 0x3d6 <_ZN4UPDI4lcdsENS_3reg5reg_tE.constprop.1>
 536:	88 30       	cpi	r24, 0x08	; 8
 538:	49 f0       	breq	.+18     	; 0x54c <_ZN5JTAG214enter_progmodeEv+0x18>
 53a:	82 38       	cpi	r24, 0x82	; 130
 53c:	b1 f4       	brne	.+44     	; 0x56a <_ZN5JTAG214enter_progmodeEv+0x36>
 53e:	8d e9       	ldi	r24, 0x9D	; 157
 540:	90 e0       	ldi	r25, 0x00	; 0
 542:	df df       	rcall	.-66     	; 0x502 <_ZN4UPDI9write_keyIK5flashIhEEEvRA8_T_>
 544:	4d df       	rcall	.-358    	; 0x3e0 <_ZN4UPDI9CPU_resetEv>
 546:	47 df       	rcall	.-370    	; 0x3d6 <_ZN4UPDI4lcdsENS_3reg5reg_tE.constprop.1>
 548:	88 30       	cpi	r24, 0x08	; 8
 54a:	e9 f7       	brne	.-6      	; 0x546 <_ZN5JTAG214enter_progmodeEv+0x12>
 54c:	64 e0       	ldi	r22, 0x04	; 4
 54e:	80 e0       	ldi	r24, 0x00	; 0
 550:	90 e1       	ldi	r25, 0x10	; 16
 552:	7c df       	rcall	.-264    	; 0x44c <_ZN4UPDI5sts_bEjh>
 554:	2d 9a       	sbi	0x05, 5	; 5
 556:	81 e0       	ldi	r24, 0x01	; 1
 558:	90 e0       	ldi	r25, 0x00	; 0
 55a:	90 93 07 01 	sts	0x0107, r25	; 0x800107 <_ZN5JTAG28prologueE+0x3>
 55e:	80 93 06 01 	sts	0x0106, r24	; 0x800106 <_ZN5JTAG28prologueE+0x2>
 562:	80 e8       	ldi	r24, 0x80	; 128
 564:	80 93 0a 01 	sts	0x010A, r24	; 0x80010a <_ZN5JTAG24bodyE>
 568:	08 95       	ret
 56a:	82 e0       	ldi	r24, 0x02	; 2
 56c:	90 e0       	ldi	r25, 0x00	; 0
 56e:	90 93 07 01 	sts	0x0107, r25	; 0x800107 <_ZN5JTAG28prologueE+0x3>
 572:	80 93 06 01 	sts	0x0106, r24	; 0x800106 <_ZN5JTAG28prologueE+0x2>
 576:	85 ea       	ldi	r24, 0xA5	; 165
 578:	80 93 0a 01 	sts	0x010A, r24	; 0x80010a <_ZN5JTAG24bodyE>
 57c:	81 e0       	ldi	r24, 0x01	; 1
 57e:	80 93 0b 01 	sts	0x010B, r24	; 0x80010b <_ZN5JTAG24bodyE+0x1>
 582:	08 95       	ret

00000584 <main>:
 584:	00 d0       	rcall	.+0      	; 0x586 <main+0x2>
 586:	0f 92       	push	r0
 588:	cd b7       	in	r28, 0x3d	; 61
 58a:	de b7       	in	r29, 0x3e	; 62
 58c:	8f e3       	ldi	r24, 0x3F	; 63
 58e:	80 93 7e 00 	sts	0x007E, r24	; 0x80007e <__TEXT_REGION_LENGTH__+0x7e007e>
 592:	9f ef       	ldi	r25, 0xFF	; 255
 594:	9b b9       	out	0x0b, r25	; 11
 596:	9f ed       	ldi	r25, 0xDF	; 223
 598:	95 b9       	out	0x05, r25	; 5
 59a:	90 e8       	ldi	r25, 0x80	; 128
 59c:	90 bf       	out	0x30, r25	; 48
 59e:	9d ec       	ldi	r25, 0xCD	; 205
 5a0:	90 93 64 00 	sts	0x0064, r25	; 0x800064 <__TEXT_REGION_LENGTH__+0x7e0064>
 5a4:	92 e0       	ldi	r25, 0x02	; 2
 5a6:	90 93 c0 00 	sts	0x00C0, r25	; 0x8000c0 <__TEXT_REGION_LENGTH__+0x7e00c0>
 5aa:	97 e6       	ldi	r25, 0x67	; 103
 5ac:	90 93 c4 00 	sts	0x00C4, r25	; 0x8000c4 <__TEXT_REGION_LENGTH__+0x7e00c4>
 5b0:	98 e1       	ldi	r25, 0x18	; 24
 5b2:	90 93 c1 00 	sts	0x00C1, r25	; 0x8000c1 <__TEXT_REGION_LENGTH__+0x7e00c1>
 5b6:	96 e0       	ldi	r25, 0x06	; 6
 5b8:	90 93 c2 00 	sts	0x00C2, r25	; 0x8000c2 <__TEXT_REGION_LENGTH__+0x7e00c2>
 5bc:	92 ec       	ldi	r25, 0xC2	; 194
 5be:	94 bd       	out	0x24, r25	; 36
 5c0:	9e e3       	ldi	r25, 0x3E	; 62
 5c2:	96 bd       	out	0x26, r25	; 38
 5c4:	87 bd       	out	0x27, r24	; 39
 5c6:	81 e0       	ldi	r24, 0x01	; 1
 5c8:	85 bd       	out	0x25, r24	; 37
 5ca:	ee 24       	eor	r14, r14
 5cc:	e3 94       	inc	r14
 5ce:	f1 2c       	mov	r15, r1
 5d0:	50 e8       	ldi	r21, 0x80	; 128
 5d2:	d5 2e       	mov	r13, r21
 5d4:	62 e0       	ldi	r22, 0x02	; 2
 5d6:	26 2e       	mov	r2, r22
 5d8:	31 2c       	mov	r3, r1
 5da:	cc 24       	eor	r12, r12
 5dc:	c3 94       	inc	r12
 5de:	4b df       	rcall	.-362    	; 0x476 <_ZN7JICE_io3getEv>
 5e0:	8b 31       	cpi	r24, 0x1B	; 27
 5e2:	e9 f7       	brne	.-6      	; 0x5de <main+0x5a>
 5e4:	ed e6       	ldi	r30, 0x6D	; 109
 5e6:	f2 e0       	ldi	r31, 0x02	; 2
 5e8:	05 91       	lpm	r16, Z+
 5ea:	14 91       	lpm	r17, Z
 5ec:	00 95       	com	r16
 5ee:	34 e0       	ldi	r19, 0x04	; 4
 5f0:	83 2e       	mov	r8, r19
 5f2:	31 e0       	ldi	r19, 0x01	; 1
 5f4:	93 2e       	mov	r9, r19
 5f6:	54 01       	movw	r10, r8
 5f8:	3e df       	rcall	.-388    	; 0x476 <_ZN7JICE_io3getEv>
 5fa:	f5 01       	movw	r30, r10
 5fc:	81 93       	st	Z+, r24
 5fe:	5f 01       	movw	r10, r30
 600:	b8 01       	movw	r22, r16
 602:	62 de       	rcall	.-828    	; 0x2c8 <_ZN3CRC4nextEhj>
 604:	8c 01       	movw	r16, r24
 606:	fa e0       	ldi	r31, 0x0A	; 10
 608:	af 16       	cp	r10, r31
 60a:	f1 e0       	ldi	r31, 0x01	; 1
 60c:	bf 06       	cpc	r11, r31
 60e:	a1 f7       	brne	.-24     	; 0x5f8 <main+0x74>
 610:	32 df       	rcall	.-412    	; 0x476 <_ZN7JICE_io3getEv>
 612:	8e 30       	cpi	r24, 0x0E	; 14
 614:	21 f7       	brne	.-56     	; 0x5de <main+0x5a>
 616:	b8 01       	movw	r22, r16
 618:	57 de       	rcall	.-850    	; 0x2c8 <_ZN3CRC4nextEhj>
 61a:	8c 01       	movw	r16, r24
 61c:	2a e0       	ldi	r18, 0x0A	; 10
 61e:	31 e0       	ldi	r19, 0x01	; 1
 620:	3b 83       	std	Y+3, r19	; 0x03
 622:	2a 83       	std	Y+2, r18	; 0x02
 624:	59 01       	movw	r10, r18
 626:	41 2c       	mov	r4, r1
 628:	51 2c       	mov	r5, r1
 62a:	32 01       	movw	r6, r4
 62c:	80 91 06 01 	lds	r24, 0x0106	; 0x800106 <_ZN5JTAG28prologueE+0x2>
 630:	90 91 07 01 	lds	r25, 0x0107	; 0x800107 <_ZN5JTAG28prologueE+0x3>
 634:	a0 91 08 01 	lds	r26, 0x0108	; 0x800108 <_ZN5JTAG28prologueE+0x4>
 638:	b0 91 09 01 	lds	r27, 0x0109	; 0x800109 <_ZN5JTAG28prologueE+0x5>
 63c:	48 16       	cp	r4, r24
 63e:	59 06       	cpc	r5, r25
 640:	6a 06       	cpc	r6, r26
 642:	7b 06       	cpc	r7, r27
 644:	68 f4       	brcc	.+26     	; 0x660 <main+0xdc>
 646:	17 df       	rcall	.-466    	; 0x476 <_ZN7JICE_io3getEv>
 648:	f5 01       	movw	r30, r10
 64a:	81 93       	st	Z+, r24
 64c:	5f 01       	movw	r10, r30
 64e:	b8 01       	movw	r22, r16
 650:	3b de       	rcall	.-906    	; 0x2c8 <_ZN3CRC4nextEhj>
 652:	8c 01       	movw	r16, r24
 654:	ff ef       	ldi	r31, 0xFF	; 255
 656:	4f 1a       	sub	r4, r31
 658:	5f 0a       	sbc	r5, r31
 65a:	6f 0a       	sbc	r6, r31
 65c:	7f 0a       	sbc	r7, r31
 65e:	e6 cf       	rjmp	.-52     	; 0x62c <main+0xa8>
 660:	0a df       	rcall	.-492    	; 0x476 <_ZN7JICE_io3getEv>
 662:	b8 2e       	mov	r11, r24
 664:	08 df       	rcall	.-496    	; 0x476 <_ZN7JICE_io3getEv>
 666:	98 2f       	mov	r25, r24
 668:	8b 2d       	mov	r24, r11
 66a:	08 17       	cp	r16, r24
 66c:	19 07       	cpc	r17, r25
 66e:	09 f0       	breq	.+2      	; 0x672 <main+0xee>
 670:	b6 cf       	rjmp	.-148    	; 0x5de <main+0x5a>
 672:	80 91 0a 01 	lds	r24, 0x010A	; 0x80010a <_ZN5JTAG24bodyE>
 676:	88 30       	cpi	r24, 0x08	; 8
 678:	09 f4       	brne	.+2      	; 0x67c <main+0xf8>
 67a:	0c c1       	rjmp	.+536    	; 0x894 <main+0x310>
 67c:	20 f5       	brcc	.+72     	; 0x6c6 <main+0x142>
 67e:	82 30       	cpi	r24, 0x02	; 2
 680:	09 f4       	brne	.+2      	; 0x684 <main+0x100>
 682:	f8 c0       	rjmp	.+496    	; 0x874 <main+0x2f0>
 684:	68 f4       	brcc	.+26     	; 0x6a0 <main+0x11c>
 686:	88 23       	and	r24, r24
 688:	09 f4       	brne	.+2      	; 0x68c <main+0x108>
 68a:	0b c1       	rjmp	.+534    	; 0x8a2 <main+0x31e>
 68c:	81 30       	cpi	r24, 0x01	; 1
 68e:	b1 f1       	breq	.+108    	; 0x6fc <main+0x178>
 690:	f0 92 07 01 	sts	0x0107, r15	; 0x800107 <_ZN5JTAG28prologueE+0x3>
 694:	e0 92 06 01 	sts	0x0106, r14	; 0x800106 <_ZN5JTAG28prologueE+0x2>
 698:	20 ea       	ldi	r18, 0xA0	; 160
 69a:	20 93 0a 01 	sts	0x010A, r18	; 0x80010a <_ZN5JTAG24bodyE>
 69e:	67 c0       	rjmp	.+206    	; 0x76e <main+0x1ea>
 6a0:	84 30       	cpi	r24, 0x04	; 4
 6a2:	09 f4       	brne	.+2      	; 0x6a6 <main+0x122>
 6a4:	44 c1       	rjmp	.+648    	; 0x92e <__stack+0x2f>
 6a6:	08 f4       	brcc	.+2      	; 0x6aa <main+0x126>
 6a8:	99 c0       	rjmp	.+306    	; 0x7dc <main+0x258>
 6aa:	85 30       	cpi	r24, 0x05	; 5
 6ac:	89 f7       	brne	.-30     	; 0x690 <main+0x10c>
 6ae:	93 de       	rcall	.-730    	; 0x3d6 <_ZN4UPDI4lcdsENS_3reg5reg_tE.constprop.1>
 6b0:	88 30       	cpi	r24, 0x08	; 8
 6b2:	09 f4       	brne	.+2      	; 0x6b6 <main+0x132>
 6b4:	0e c1       	rjmp	.+540    	; 0x8d2 <main+0x34e>
 6b6:	30 92 07 01 	sts	0x0107, r3	; 0x800107 <_ZN5JTAG28prologueE+0x3>
 6ba:	20 92 06 01 	sts	0x0106, r2	; 0x800106 <_ZN5JTAG28prologueE+0x2>
 6be:	e5 ea       	ldi	r30, 0xA5	; 165
 6c0:	e0 93 0a 01 	sts	0x010A, r30	; 0x80010a <_ZN5JTAG24bodyE>
 6c4:	fd c0       	rjmp	.+506    	; 0x8c0 <main+0x33c>
 6c6:	8f 30       	cpi	r24, 0x0F	; 15
 6c8:	09 f4       	brne	.+2      	; 0x6cc <main+0x148>
 6ca:	e4 c0       	rjmp	.+456    	; 0x894 <main+0x310>
 6cc:	68 f4       	brcc	.+26     	; 0x6e8 <main+0x164>
 6ce:	8b 30       	cpi	r24, 0x0B	; 11
 6d0:	99 f0       	breq	.+38     	; 0x6f8 <main+0x174>
 6d2:	8c 30       	cpi	r24, 0x0C	; 12
 6d4:	e9 f6       	brne	.-70     	; 0x690 <main+0x10c>
 6d6:	80 91 fe 01 	lds	r24, 0x01FE	; 0x8001fe <_ZN5JTAG24bodyE+0xf4>
 6da:	80 93 02 01 	sts	0x0102, r24	; 0x800102 <flash_pagesize>
 6de:	80 91 00 02 	lds	r24, 0x0200	; 0x800200 <_ZN5JTAG24bodyE+0xf6>
 6e2:	80 93 01 01 	sts	0x0101, r24	; 0x800101 <eeprom_pagesize>
 6e6:	d6 c0       	rjmp	.+428    	; 0x894 <main+0x310>
 6e8:	85 31       	cpi	r24, 0x15	; 21
 6ea:	09 f4       	brne	.+2      	; 0x6ee <main+0x16a>
 6ec:	dd c0       	rjmp	.+442    	; 0x8a8 <main+0x324>
 6ee:	84 33       	cpi	r24, 0x34	; 52
 6f0:	09 f4       	brne	.+2      	; 0x6f4 <main+0x170>
 6f2:	93 c1       	rjmp	.+806    	; 0xa1a <__stack+0x11b>
 6f4:	84 31       	cpi	r24, 0x14	; 20
 6f6:	61 f6       	brne	.-104    	; 0x690 <main+0x10c>
 6f8:	1d df       	rcall	.-454    	; 0x534 <_ZN5JTAG214enter_progmodeEv>
 6fa:	39 c0       	rjmp	.+114    	; 0x76e <main+0x1ea>
 6fc:	92 e0       	ldi	r25, 0x02	; 2
 6fe:	90 93 00 01 	sts	0x0100, r25	; 0x800100 <_edata>
 702:	24 e0       	ldi	r18, 0x04	; 4
 704:	20 93 03 01 	sts	0x0103, r18	; 0x800103 <_ZN5JTAG219PARAM_BAUD_RATE_VALE>
 708:	15 bc       	out	0x25, r1	; 37
 70a:	2f e3       	ldi	r18, 0x3F	; 63
 70c:	27 bd       	out	0x27, r18	; 39
 70e:	2e e3       	ldi	r18, 0x3E	; 62
 710:	26 bd       	out	0x26, r18	; 38
 712:	12 e8       	ldi	r17, 0x82	; 130
 714:	14 bd       	out	0x24, r17	; 36
 716:	85 bd       	out	0x25, r24	; 37
 718:	56 9a       	sbi	0x0a, 6	; 10
 71a:	95 bb       	out	0x15, r25	; 21
 71c:	e3 dd       	rcall	.-1082   	; 0x2e4 <_ZZN7UPDI_io3putENS_4ctrlEENKUlvE_clEv.isra.0>
 71e:	14 bd       	out	0x24, r17	; 36
 720:	a9 9b       	sbis	0x15, 1	; 21
 722:	fe cf       	rjmp	.-4      	; 0x720 <main+0x19c>
 724:	82 e0       	ldi	r24, 0x02	; 2
 726:	85 bb       	out	0x15, r24	; 21
 728:	56 9a       	sbi	0x0a, 6	; 10
 72a:	dc dd       	rcall	.-1096   	; 0x2e4 <_ZZN7UPDI_io3putENS_4ctrlEENKUlvE_clEv.isra.0>
 72c:	a9 9b       	sbis	0x15, 1	; 21
 72e:	fe cf       	rjmp	.-4      	; 0x72c <main+0x1a8>
 730:	82 e0       	ldi	r24, 0x02	; 2
 732:	85 bb       	out	0x15, r24	; 21
 734:	8f e3       	ldi	r24, 0x3F	; 63
 736:	87 bd       	out	0x27, r24	; 39
 738:	8e e3       	ldi	r24, 0x3E	; 62
 73a:	86 bd       	out	0x26, r24	; 38
 73c:	c5 bc       	out	0x25, r12	; 37
 73e:	85 e5       	ldi	r24, 0x55	; 85
 740:	0d de       	rcall	.-998    	; 0x35c <_ZN7UPDI_io3putEc>
 742:	82 ec       	ldi	r24, 0xC2	; 194
 744:	0b de       	rcall	.-1002   	; 0x35c <_ZN7UPDI_io3putEc>
 746:	86 e0       	ldi	r24, 0x06	; 6
 748:	09 de       	rcall	.-1006   	; 0x35c <_ZN7UPDI_io3putEc>
 74a:	2d e1       	ldi	r18, 0x1D	; 29
 74c:	30 e0       	ldi	r19, 0x00	; 0
 74e:	30 93 07 01 	sts	0x0107, r19	; 0x800107 <_ZN5JTAG28prologueE+0x3>
 752:	20 93 06 01 	sts	0x0106, r18	; 0x800106 <_ZN5JTAG28prologueE+0x2>
 756:	e8 e6       	ldi	r30, 0x68	; 104
 758:	f0 e0       	ldi	r31, 0x00	; 0
 75a:	aa e0       	ldi	r26, 0x0A	; 10
 75c:	b1 e0       	ldi	r27, 0x01	; 1
 75e:	84 91       	lpm	r24, Z
 760:	8d 93       	st	X+, r24
 762:	31 96       	adiw	r30, 0x01	; 1
 764:	87 e2       	ldi	r24, 0x27	; 39
 766:	91 e0       	ldi	r25, 0x01	; 1
 768:	8a 17       	cp	r24, r26
 76a:	9b 07       	cpc	r25, r27
 76c:	c1 f7       	brne	.-16     	; 0x75e <main+0x1da>
 76e:	8b e1       	ldi	r24, 0x1B	; 27
 770:	89 de       	rcall	.-750    	; 0x484 <_ZN7JICE_io3putEc>
 772:	6f ef       	ldi	r22, 0xFF	; 255
 774:	7f ef       	ldi	r23, 0xFF	; 255
 776:	a8 dd       	rcall	.-1200   	; 0x2c8 <_ZN3CRC4nextEhj>
 778:	8c 01       	movw	r16, r24
 77a:	f4 01       	movw	r30, r8
 77c:	81 91       	ld	r24, Z+
 77e:	4f 01       	movw	r8, r30
 780:	81 de       	rcall	.-766    	; 0x484 <_ZN7JICE_io3putEc>
 782:	b8 01       	movw	r22, r16
 784:	a1 dd       	rcall	.-1214   	; 0x2c8 <_ZN3CRC4nextEhj>
 786:	8c 01       	movw	r16, r24
 788:	fa e0       	ldi	r31, 0x0A	; 10
 78a:	8f 16       	cp	r8, r31
 78c:	f1 e0       	ldi	r31, 0x01	; 1
 78e:	9f 06       	cpc	r9, r31
 790:	a1 f7       	brne	.-24     	; 0x77a <main+0x1f6>
 792:	8e e0       	ldi	r24, 0x0E	; 14
 794:	77 de       	rcall	.-786    	; 0x484 <_ZN7JICE_io3putEc>
 796:	b8 01       	movw	r22, r16
 798:	97 dd       	rcall	.-1234   	; 0x2c8 <_ZN3CRC4nextEhj>
 79a:	8c 01       	movw	r16, r24
 79c:	81 2c       	mov	r8, r1
 79e:	91 2c       	mov	r9, r1
 7a0:	54 01       	movw	r10, r8
 7a2:	80 91 06 01 	lds	r24, 0x0106	; 0x800106 <_ZN5JTAG28prologueE+0x2>
 7a6:	90 91 07 01 	lds	r25, 0x0107	; 0x800107 <_ZN5JTAG28prologueE+0x3>
 7aa:	a0 91 08 01 	lds	r26, 0x0108	; 0x800108 <_ZN5JTAG28prologueE+0x4>
 7ae:	b0 91 09 01 	lds	r27, 0x0109	; 0x800109 <_ZN5JTAG28prologueE+0x5>
 7b2:	88 16       	cp	r8, r24
 7b4:	99 06       	cpc	r9, r25
 7b6:	aa 06       	cpc	r10, r26
 7b8:	bb 06       	cpc	r11, r27
 7ba:	08 f0       	brcs	.+2      	; 0x7be <main+0x23a>
 7bc:	4e c1       	rjmp	.+668    	; 0xa5a <__stack+0x15b>
 7be:	ea 81       	ldd	r30, Y+2	; 0x02
 7c0:	fb 81       	ldd	r31, Y+3	; 0x03
 7c2:	81 91       	ld	r24, Z+
 7c4:	fb 83       	std	Y+3, r31	; 0x03
 7c6:	ea 83       	std	Y+2, r30	; 0x02
 7c8:	5d de       	rcall	.-838    	; 0x484 <_ZN7JICE_io3putEc>
 7ca:	b8 01       	movw	r22, r16
 7cc:	7d dd       	rcall	.-1286   	; 0x2c8 <_ZN3CRC4nextEhj>
 7ce:	8c 01       	movw	r16, r24
 7d0:	ff ef       	ldi	r31, 0xFF	; 255
 7d2:	8f 1a       	sub	r8, r31
 7d4:	9f 0a       	sbc	r9, r31
 7d6:	af 0a       	sbc	r10, r31
 7d8:	bf 0a       	sbc	r11, r31
 7da:	e3 cf       	rjmp	.-58     	; 0x7a2 <main+0x21e>
 7dc:	80 91 0b 01 	lds	r24, 0x010B	; 0x80010b <_ZN5JTAG24bodyE+0x1>
 7e0:	83 30       	cpi	r24, 0x03	; 3
 7e2:	c1 f1       	breq	.+112    	; 0x854 <main+0x2d0>
 7e4:	60 f4       	brcc	.+24     	; 0x7fe <main+0x27a>
 7e6:	81 30       	cpi	r24, 0x01	; 1
 7e8:	c9 f0       	breq	.+50     	; 0x81c <main+0x298>
 7ea:	82 30       	cpi	r24, 0x02	; 2
 7ec:	11 f1       	breq	.+68     	; 0x832 <main+0x2ae>
 7ee:	f0 92 07 01 	sts	0x0107, r15	; 0x800107 <_ZN5JTAG28prologueE+0x3>
 7f2:	e0 92 06 01 	sts	0x0106, r14	; 0x800106 <_ZN5JTAG28prologueE+0x2>
 7f6:	81 ea       	ldi	r24, 0xA1	; 161
 7f8:	80 93 0a 01 	sts	0x010A, r24	; 0x80010a <_ZN5JTAG24bodyE>
 7fc:	b8 cf       	rjmp	.-144    	; 0x76e <main+0x1ea>
 7fe:	85 30       	cpi	r24, 0x05	; 5
 800:	91 f1       	breq	.+100    	; 0x866 <main+0x2e2>
 802:	86 30       	cpi	r24, 0x06	; 6
 804:	a1 f7       	brne	.-24     	; 0x7ee <main+0x26a>
 806:	83 e0       	ldi	r24, 0x03	; 3
 808:	90 e0       	ldi	r25, 0x00	; 0
 80a:	90 93 07 01 	sts	0x0107, r25	; 0x800107 <_ZN5JTAG28prologueE+0x3>
 80e:	80 93 06 01 	sts	0x0106, r24	; 0x800106 <_ZN5JTAG28prologueE+0x2>
 812:	88 e8       	ldi	r24, 0x88	; 136
 814:	80 93 0b 01 	sts	0x010B, r24	; 0x80010b <_ZN5JTAG24bodyE+0x1>
 818:	83 e1       	ldi	r24, 0x13	; 19
 81a:	08 c0       	rjmp	.+16     	; 0x82c <main+0x2a8>
 81c:	e3 e0       	ldi	r30, 0x03	; 3
 81e:	f0 e0       	ldi	r31, 0x00	; 0
 820:	f0 93 07 01 	sts	0x0107, r31	; 0x800107 <_ZN5JTAG28prologueE+0x3>
 824:	e0 93 06 01 	sts	0x0106, r30	; 0x800106 <_ZN5JTAG28prologueE+0x2>
 828:	80 93 0b 01 	sts	0x010B, r24	; 0x80010b <_ZN5JTAG24bodyE+0x1>
 82c:	80 93 0c 01 	sts	0x010C, r24	; 0x80010c <_ZN5JTAG24bodyE+0x2>
 830:	0f c0       	rjmp	.+30     	; 0x850 <main+0x2cc>
 832:	25 e0       	ldi	r18, 0x05	; 5
 834:	30 e0       	ldi	r19, 0x00	; 0
 836:	30 93 07 01 	sts	0x0107, r19	; 0x800107 <_ZN5JTAG28prologueE+0x3>
 83a:	20 93 06 01 	sts	0x0106, r18	; 0x800106 <_ZN5JTAG28prologueE+0x2>
 83e:	10 92 0b 01 	sts	0x010B, r1	; 0x80010b <_ZN5JTAG24bodyE+0x1>
 842:	86 e0       	ldi	r24, 0x06	; 6
 844:	80 93 0c 01 	sts	0x010C, r24	; 0x80010c <_ZN5JTAG24bodyE+0x2>
 848:	10 92 0d 01 	sts	0x010D, r1	; 0x80010d <_ZN5JTAG24bodyE+0x3>
 84c:	80 93 0e 01 	sts	0x010E, r24	; 0x80010e <_ZN5JTAG24bodyE+0x4>
 850:	81 e8       	ldi	r24, 0x81	; 129
 852:	d2 cf       	rjmp	.-92     	; 0x7f8 <main+0x274>
 854:	30 92 07 01 	sts	0x0107, r3	; 0x800107 <_ZN5JTAG28prologueE+0x3>
 858:	20 92 06 01 	sts	0x0106, r2	; 0x800106 <_ZN5JTAG28prologueE+0x2>
 85c:	80 91 00 01 	lds	r24, 0x0100	; 0x800100 <_edata>
 860:	80 93 0b 01 	sts	0x010B, r24	; 0x80010b <_ZN5JTAG24bodyE+0x1>
 864:	f5 cf       	rjmp	.-22     	; 0x850 <main+0x2cc>
 866:	30 92 07 01 	sts	0x0107, r3	; 0x800107 <_ZN5JTAG28prologueE+0x3>
 86a:	20 92 06 01 	sts	0x0106, r2	; 0x800106 <_ZN5JTAG28prologueE+0x2>
 86e:	80 91 03 01 	lds	r24, 0x0103	; 0x800103 <_ZN5JTAG219PARAM_BAUD_RATE_VALE>
 872:	f6 cf       	rjmp	.-20     	; 0x860 <main+0x2dc>
 874:	80 91 0b 01 	lds	r24, 0x010B	; 0x80010b <_ZN5JTAG24bodyE+0x1>
 878:	83 30       	cpi	r24, 0x03	; 3
 87a:	41 f0       	breq	.+16     	; 0x88c <main+0x308>
 87c:	85 30       	cpi	r24, 0x05	; 5
 87e:	09 f0       	breq	.+2      	; 0x882 <main+0x2fe>
 880:	b6 cf       	rjmp	.-148    	; 0x7ee <main+0x26a>
 882:	80 91 0c 01 	lds	r24, 0x010C	; 0x80010c <_ZN5JTAG24bodyE+0x2>
 886:	80 93 03 01 	sts	0x0103, r24	; 0x800103 <_ZN5JTAG219PARAM_BAUD_RATE_VALE>
 88a:	04 c0       	rjmp	.+8      	; 0x894 <main+0x310>
 88c:	80 91 0c 01 	lds	r24, 0x010C	; 0x80010c <_ZN5JTAG24bodyE+0x2>
 890:	80 93 00 01 	sts	0x0100, r24	; 0x800100 <_edata>
 894:	f0 92 07 01 	sts	0x0107, r15	; 0x800107 <_ZN5JTAG28prologueE+0x3>
 898:	e0 92 06 01 	sts	0x0106, r14	; 0x800106 <_ZN5JTAG28prologueE+0x2>
 89c:	d0 92 0a 01 	sts	0x010A, r13	; 0x80010a <_ZN5JTAG24bodyE>
 8a0:	66 cf       	rjmp	.-308    	; 0x76e <main+0x1ea>
 8a2:	84 e0       	ldi	r24, 0x04	; 4
 8a4:	80 93 03 01 	sts	0x0103, r24	; 0x800103 <_ZN5JTAG219PARAM_BAUD_RATE_VALE>
 8a8:	96 dd       	rcall	.-1236   	; 0x3d6 <_ZN4UPDI4lcdsENS_3reg5reg_tE.constprop.1>
 8aa:	88 30       	cpi	r24, 0x08	; 8
 8ac:	61 f0       	breq	.+24     	; 0x8c6 <main+0x342>
 8ae:	82 38       	cpi	r24, 0x82	; 130
 8b0:	71 f0       	breq	.+28     	; 0x8ce <main+0x34a>
 8b2:	30 92 07 01 	sts	0x0107, r3	; 0x800107 <_ZN5JTAG28prologueE+0x3>
 8b6:	20 92 06 01 	sts	0x0106, r2	; 0x800106 <_ZN5JTAG28prologueE+0x2>
 8ba:	95 ea       	ldi	r25, 0xA5	; 165
 8bc:	90 93 0a 01 	sts	0x010A, r25	; 0x80010a <_ZN5JTAG24bodyE>
 8c0:	c0 92 0b 01 	sts	0x010B, r12	; 0x80010b <_ZN5JTAG24bodyE+0x1>
 8c4:	54 cf       	rjmp	.-344    	; 0x76e <main+0x1ea>
 8c6:	8c dd       	rcall	.-1256   	; 0x3e0 <_ZN4UPDI9CPU_resetEv>
 8c8:	86 dd       	rcall	.-1268   	; 0x3d6 <_ZN4UPDI4lcdsENS_3reg5reg_tE.constprop.1>
 8ca:	82 38       	cpi	r24, 0x82	; 130
 8cc:	e9 f7       	brne	.-6      	; 0x8c8 <main+0x344>
 8ce:	2d 98       	cbi	0x05, 5	; 5
 8d0:	e1 cf       	rjmp	.-62     	; 0x894 <main+0x310>
 8d2:	00 91 0c 01 	lds	r16, 0x010C	; 0x80010c <_ZN5JTAG24bodyE+0x2>
 8d6:	10 91 0d 01 	lds	r17, 0x010D	; 0x80010d <_ZN5JTAG24bodyE+0x3>
 8da:	80 91 10 01 	lds	r24, 0x0110	; 0x800110 <_ZN5JTAG24bodyE+0x6>
 8de:	90 91 11 01 	lds	r25, 0x0111	; 0x800111 <_ZN5JTAG24bodyE+0x7>
 8e2:	94 dd       	rcall	.-1240   	; 0x40c <_ZN4UPDI7stptr_wEj>
 8e4:	85 e5       	ldi	r24, 0x55	; 85
 8e6:	3a dd       	rcall	.-1420   	; 0x35c <_ZN7UPDI_io3putEc>
 8e8:	80 ea       	ldi	r24, 0xA0	; 160
 8ea:	38 dd       	rcall	.-1424   	; 0x35c <_ZN7UPDI_io3putEc>
 8ec:	8f ef       	ldi	r24, 0xFF	; 255
 8ee:	80 0f       	add	r24, r16
 8f0:	35 dd       	rcall	.-1430   	; 0x35c <_ZN7UPDI_io3putEc>
 8f2:	85 e5       	ldi	r24, 0x55	; 85
 8f4:	33 dd       	rcall	.-1434   	; 0x35c <_ZN7UPDI_io3putEc>
 8f6:	84 e2       	ldi	r24, 0x24	; 36
 8f8:	31 dd       	rcall	.-1438   	; 0x35c <_ZN7UPDI_io3putEc>
 8fa:	07 dd       	rcall	.-1522   	; 0x30a <_ZN7UPDI_io3getEv>
 8fc:	80 93 0b 01 	sts	0x010B, r24	; 0x80010b <_ZN5JTAG24bodyE+0x1>
 900:	22 e0       	ldi	r18, 0x02	; 2
 902:	a2 2e       	mov	r10, r18
 904:	b1 2c       	mov	r11, r1
 906:	0a 15       	cp	r16, r10
 908:	1b 05       	cpc	r17, r11
 90a:	48 f0       	brcs	.+18     	; 0x91e <__stack+0x1f>
 90c:	fe dc       	rcall	.-1540   	; 0x30a <_ZN7UPDI_io3getEv>
 90e:	f5 01       	movw	r30, r10
 910:	e6 5f       	subi	r30, 0xF6	; 246
 912:	fe 4f       	sbci	r31, 0xFE	; 254
 914:	80 83       	st	Z, r24
 916:	ff ef       	ldi	r31, 0xFF	; 255
 918:	af 1a       	sub	r10, r31
 91a:	bf 0a       	sbc	r11, r31
 91c:	f4 cf       	rjmp	.-24     	; 0x906 <__stack+0x7>
 91e:	0f 5f       	subi	r16, 0xFF	; 255
 920:	1f 4f       	sbci	r17, 0xFF	; 255
 922:	10 93 07 01 	sts	0x0107, r17	; 0x800107 <_ZN5JTAG28prologueE+0x3>
 926:	00 93 06 01 	sts	0x0106, r16	; 0x800106 <_ZN5JTAG28prologueE+0x2>
 92a:	82 e8       	ldi	r24, 0x82	; 130
 92c:	65 cf       	rjmp	.-310    	; 0x7f8 <main+0x274>
 92e:	53 dd       	rcall	.-1370   	; 0x3d6 <_ZN4UPDI4lcdsENS_3reg5reg_tE.constprop.1>
 930:	88 30       	cpi	r24, 0x08	; 8
 932:	09 f0       	breq	.+2      	; 0x936 <__stack+0x37>
 934:	c0 ce       	rjmp	.-640    	; 0x6b6 <main+0x132>
 936:	80 91 0b 01 	lds	r24, 0x010B	; 0x80010b <_ZN5JTAG24bodyE+0x1>
 93a:	b0 90 10 01 	lds	r11, 0x0110	; 0x800110 <_ZN5JTAG24bodyE+0x6>
 93e:	a0 90 11 01 	lds	r10, 0x0111	; 0x800111 <_ZN5JTAG24bodyE+0x7>
 942:	90 e4       	ldi	r25, 0x40	; 64
 944:	98 0f       	add	r25, r24
 946:	60 90 02 01 	lds	r6, 0x0102	; 0x800102 <flash_pagesize>
 94a:	77 24       	eor	r7, r7
 94c:	73 94       	inc	r7
 94e:	92 30       	cpi	r25, 0x02	; 2
 950:	18 f1       	brcs	.+70     	; 0x998 <__stack+0x99>
 952:	60 90 01 01 	lds	r6, 0x0101	; 0x800101 <eeprom_pagesize>
 956:	82 3b       	cpi	r24, 0xB2	; 178
 958:	38 f0       	brcs	.+14     	; 0x968 <__stack+0x69>
 95a:	84 3b       	cpi	r24, 0xB4	; 180
 95c:	58 f0       	brcs	.+22     	; 0x974 <__stack+0x75>
 95e:	84 5c       	subi	r24, 0xC4	; 196
 960:	93 e0       	ldi	r25, 0x03	; 3
 962:	79 2e       	mov	r7, r25
 964:	82 30       	cpi	r24, 0x02	; 2
 966:	c0 f0       	brcs	.+48     	; 0x998 <__stack+0x99>
 968:	f0 92 07 01 	sts	0x0107, r15	; 0x800107 <_ZN5JTAG28prologueE+0x3>
 96c:	e0 92 06 01 	sts	0x0106, r14	; 0x800106 <_ZN5JTAG28prologueE+0x2>
 970:	82 ea       	ldi	r24, 0xA2	; 162
 972:	42 cf       	rjmp	.-380    	; 0x7f8 <main+0x274>
 974:	10 91 14 01 	lds	r17, 0x0114	; 0x800114 <_ZN5JTAG24bodyE+0xa>
 978:	86 e0       	ldi	r24, 0x06	; 6
 97a:	90 e1       	ldi	r25, 0x10	; 16
 97c:	47 dd       	rcall	.-1394   	; 0x40c <_ZN4UPDI7stptr_wEj>
 97e:	81 2f       	mov	r24, r17
 980:	3b dd       	rcall	.-1418   	; 0x3f8 <_ZN4UPDI7stinc_bEh>
 982:	80 e0       	ldi	r24, 0x00	; 0
 984:	39 dd       	rcall	.-1422   	; 0x3f8 <_ZN4UPDI7stinc_bEh>
 986:	8b 2d       	mov	r24, r11
 988:	37 dd       	rcall	.-1426   	; 0x3f8 <_ZN4UPDI7stinc_bEh>
 98a:	8a 2d       	mov	r24, r10
 98c:	35 dd       	rcall	.-1430   	; 0x3f8 <_ZN4UPDI7stinc_bEh>
 98e:	67 e0       	ldi	r22, 0x07	; 7
 990:	80 e0       	ldi	r24, 0x00	; 0
 992:	90 e1       	ldi	r25, 0x10	; 16
 994:	5b dd       	rcall	.-1354   	; 0x44c <_ZN4UPDI5sts_bEjh>
 996:	7e cf       	rjmp	.-260    	; 0x894 <main+0x310>
 998:	00 91 0c 01 	lds	r16, 0x010C	; 0x80010c <_ZN5JTAG24bodyE+0x2>
 99c:	10 91 0d 01 	lds	r17, 0x010D	; 0x80010d <_ZN5JTAG24bodyE+0x3>
 9a0:	8a e0       	ldi	r24, 0x0A	; 10
 9a2:	89 83       	std	Y+1, r24	; 0x01
 9a4:	8b 2d       	mov	r24, r11
 9a6:	9a 2d       	mov	r25, r10
 9a8:	31 dd       	rcall	.-1438   	; 0x40c <_ZN4UPDI7stptr_wEj>
 9aa:	b1 94       	neg	r11
 9ac:	8f ef       	ldi	r24, 0xFF	; 255
 9ae:	86 0d       	add	r24, r6
 9b0:	b8 22       	and	r11, r24
 9b2:	b0 16       	cp	r11, r16
 9b4:	11 06       	cpc	r1, r17
 9b6:	11 f0       	breq	.+4      	; 0x9bc <__stack+0xbd>
 9b8:	08 f0       	brcs	.+2      	; 0x9bc <__stack+0xbd>
 9ba:	b0 2e       	mov	r11, r16
 9bc:	bb 20       	and	r11, r11
 9be:	79 f0       	breq	.+30     	; 0x9de <__stack+0xdf>
 9c0:	be 01       	movw	r22, r28
 9c2:	6f 5f       	subi	r22, 0xFF	; 255
 9c4:	7f 4f       	sbci	r23, 0xFF	; 255
 9c6:	8b 2d       	mov	r24, r11
 9c8:	64 dd       	rcall	.-1336   	; 0x492 <_ZZ18NVM_buffered_writejjhhENKUlhRhE_clEhS_.isra.4>
 9ca:	0b 19       	sub	r16, r11
 9cc:	11 09       	sbc	r17, r1
 9ce:	2d dd       	rcall	.-1446   	; 0x42a <_ZN4UPDI7ldptr_wEv>
 9d0:	5c 01       	movw	r10, r24
 9d2:	67 2d       	mov	r22, r7
 9d4:	80 e0       	ldi	r24, 0x00	; 0
 9d6:	90 e1       	ldi	r25, 0x10	; 16
 9d8:	39 dd       	rcall	.-1422   	; 0x44c <_ZN4UPDI5sts_bEjh>
 9da:	c5 01       	movw	r24, r10
 9dc:	17 dd       	rcall	.-1490   	; 0x40c <_ZN4UPDI7stptr_wEj>
 9de:	a6 2c       	mov	r10, r6
 9e0:	b1 2c       	mov	r11, r1
 9e2:	01 15       	cp	r16, r1
 9e4:	11 05       	cpc	r17, r1
 9e6:	09 f4       	brne	.+2      	; 0x9ea <__stack+0xeb>
 9e8:	55 cf       	rjmp	.-342    	; 0x894 <main+0x310>
 9ea:	be 01       	movw	r22, r28
 9ec:	6f 5f       	subi	r22, 0xFF	; 255
 9ee:	7f 4f       	sbci	r23, 0xFF	; 255
 9f0:	0a 15       	cp	r16, r10
 9f2:	1b 05       	cpc	r17, r11
 9f4:	68 f0       	brcs	.+26     	; 0xa10 <__stack+0x111>
 9f6:	86 2d       	mov	r24, r6
 9f8:	4c dd       	rcall	.-1384   	; 0x492 <_ZZ18NVM_buffered_writejjhhENKUlhRhE_clEhS_.isra.4>
 9fa:	0a 19       	sub	r16, r10
 9fc:	1b 09       	sbc	r17, r11
 9fe:	15 dd       	rcall	.-1494   	; 0x42a <_ZN4UPDI7ldptr_wEv>
 a00:	2c 01       	movw	r4, r24
 a02:	67 2d       	mov	r22, r7
 a04:	80 e0       	ldi	r24, 0x00	; 0
 a06:	90 e1       	ldi	r25, 0x10	; 16
 a08:	21 dd       	rcall	.-1470   	; 0x44c <_ZN4UPDI5sts_bEjh>
 a0a:	c2 01       	movw	r24, r4
 a0c:	ff dc       	rcall	.-1538   	; 0x40c <_ZN4UPDI7stptr_wEj>
 a0e:	e9 cf       	rjmp	.-46     	; 0x9e2 <__stack+0xe3>
 a10:	80 2f       	mov	r24, r16
 a12:	3f dd       	rcall	.-1410   	; 0x492 <_ZZ18NVM_buffered_writejjhhENKUlhRhE_clEhS_.isra.4>
 a14:	10 e0       	ldi	r17, 0x00	; 0
 a16:	00 e0       	ldi	r16, 0x00	; 0
 a18:	f2 cf       	rjmp	.-28     	; 0x9fe <__stack+0xff>
 a1a:	80 91 0b 01 	lds	r24, 0x010B	; 0x80010b <_ZN5JTAG24bodyE+0x1>
 a1e:	86 30       	cpi	r24, 0x06	; 6
 a20:	60 f4       	brcc	.+24     	; 0xa3a <__stack+0x13b>
 a22:	84 30       	cpi	r24, 0x04	; 4
 a24:	70 f4       	brcc	.+28     	; 0xa42 <__stack+0x143>
 a26:	81 11       	cpse	r24, r1
 a28:	33 ce       	rjmp	.-922    	; 0x690 <main+0x10c>
 a2a:	85 e8       	ldi	r24, 0x85	; 133
 a2c:	90 e0       	ldi	r25, 0x00	; 0
 a2e:	69 dd       	rcall	.-1326   	; 0x502 <_ZN4UPDI9write_keyIK5flashIhEEEvRA8_T_>
 a30:	d7 dc       	rcall	.-1618   	; 0x3e0 <_ZN4UPDI9CPU_resetEv>
 a32:	d1 dc       	rcall	.-1630   	; 0x3d6 <_ZN4UPDI4lcdsENS_3reg5reg_tE.constprop.1>
 a34:	80 fd       	sbrc	r24, 0
 a36:	fd cf       	rjmp	.-6      	; 0xa32 <__stack+0x133>
 a38:	5f ce       	rjmp	.-834    	; 0x6f8 <main+0x174>
 a3a:	88 30       	cpi	r24, 0x08	; 8
 a3c:	08 f4       	brcc	.+2      	; 0xa40 <__stack+0x141>
 a3e:	2a cf       	rjmp	.-428    	; 0x894 <main+0x310>
 a40:	27 ce       	rjmp	.-946    	; 0x690 <main+0x10c>
 a42:	00 91 0c 01 	lds	r16, 0x010C	; 0x80010c <_ZN5JTAG24bodyE+0x2>
 a46:	10 91 0d 01 	lds	r17, 0x010D	; 0x80010d <_ZN5JTAG24bodyE+0x3>
 a4a:	bc dc       	rcall	.-1672   	; 0x3c4 <_ZN4UPDI5lds_bEj.constprop.2>
 a4c:	83 70       	andi	r24, 0x03	; 3
 a4e:	e9 f7       	brne	.-6      	; 0xa4a <__stack+0x14b>
 a50:	6f ef       	ldi	r22, 0xFF	; 255
 a52:	c8 01       	movw	r24, r16
 a54:	fb dc       	rcall	.-1546   	; 0x44c <_ZN4UPDI5sts_bEjh>
 a56:	62 e0       	ldi	r22, 0x02	; 2
 a58:	9b cf       	rjmp	.-202    	; 0x990 <__stack+0x91>
 a5a:	80 2f       	mov	r24, r16
 a5c:	13 dd       	rcall	.-1498   	; 0x484 <_ZN7JICE_io3putEc>
 a5e:	81 2f       	mov	r24, r17
 a60:	11 dd       	rcall	.-1502   	; 0x484 <_ZN7JICE_io3putEc>
 a62:	80 91 c0 00 	lds	r24, 0x00C0	; 0x8000c0 <__TEXT_REGION_LENGTH__+0x7e00c0>
 a66:	80 64       	ori	r24, 0x40	; 64
 a68:	80 93 c0 00 	sts	0x00C0, r24	; 0x8000c0 <__TEXT_REGION_LENGTH__+0x7e00c0>
 a6c:	80 91 c0 00 	lds	r24, 0x00C0	; 0x8000c0 <__TEXT_REGION_LENGTH__+0x7e00c0>
 a70:	86 ff       	sbrs	r24, 6
 a72:	fc cf       	rjmp	.-8      	; 0xa6c <__stack+0x16d>
 a74:	e0 91 03 01 	lds	r30, 0x0103	; 0x800103 <_ZN5JTAG219PARAM_BAUD_RATE_VALE>
 a78:	e1 50       	subi	r30, 0x01	; 1
 a7a:	ff 0b       	sbc	r31, r31
 a7c:	ee 0f       	add	r30, r30
 a7e:	ff 1f       	adc	r31, r31
 a80:	e3 57       	subi	r30, 0x73	; 115
 a82:	ff 4f       	sbci	r31, 0xFF	; 255
 a84:	85 91       	lpm	r24, Z+
 a86:	94 91       	lpm	r25, Z
 a88:	90 93 c5 00 	sts	0x00C5, r25	; 0x8000c5 <__TEXT_REGION_LENGTH__+0x7e00c5>
 a8c:	80 93 c4 00 	sts	0x00C4, r24	; 0x8000c4 <__TEXT_REGION_LENGTH__+0x7e00c4>
 a90:	a6 cd       	rjmp	.-1204   	; 0x5de <main+0x5a>

00000a92 <_exit>:
 a92:	f8 94       	cli

00000a94 <__stop_program>:
 a94:	ff cf       	rjmp	.-2      	; 0xa94 <__stop_program>
